(lp0
(S'elfflags'
p1
ccopy_reg
_reconstructor
p2
(cino.utils
SpaceList
p3
c__builtin__
list
p4
(lp5
S'-Os'
p6
aS'-Wl,--gc-sections'
p7
aS'-mmcu=atmega328p'
p8
atp9
Rp10
tp11
a(S'version.txt'
p12
S'/usr/share/arduino/lib/version.txt'
p13
tp14
a(S'used_libs'
p15
(lp16
S'/usr/share/arduino/hardware/arduino/cores/arduino'
p17
atp18
a(S'cc'
p19
S'/usr/bin/avr-gcc'
p20
tp21
a(S'build_dir'
p22
S'.build/uno'
p23
tp24
a(S'arduino_core_dir'
p25
g17
tp26
a(S'boards.txt'
p27
S'/usr/share/arduino/hardware/arduino/boards.txt'
p28
tp29
a(S'cxxflags'
p30
g2
(g3
g4
(lp31
S'-fno-exceptions'
p32
atp33
Rp34
tp35
a(S'arduino_variants_dir'
p36
S'/usr/share/arduino/hardware/arduino/variants'
p37
tp38
a(S'deps'
p39
g2
(g3
g4
(lp40
S'.build/uno/src/dependencies.d'
p41
aS'.build/uno/arduino/dependencies.d'
p42
atp43
Rp44
tp45
a(S'ar'
p46
S'/usr/bin/avr-ar'
p47
tp48
a(S'names'
p49
(dp50
S'cpp'
p51
S'%s.cpp'
p52
sS'obj'
p53
S'%s.o'
p54
sg39
S'%s.d'
p55
sS'lib'
p56
S'lib%s.a'
p57
stp58
a(S'cflags'
p59
g2
(g3
g4
(lp60
g8
aS'-ffunction-sections'
p61
aS'-fdata-sections'
p62
aS'-g'
p63
ag6
aS'-w'
p64
aS'-DF_CPU=16000000L'
p65
aS'-DARDUINO=100'
p66
aS'-I/usr/share/arduino/hardware/arduino/cores/arduino'
p67
aS'-I/usr/share/arduino/hardware/arduino/variants/standard'
p68
aS'-I/usr/share/arduino/hardware/arduino/cores/arduino'
p69
atp70
Rp71
tp72
a(S'arduino_libraries_dir'
p73
S'/usr/share/arduino/libraries'
p74
tp75
a(S'arduino_lib_version'
p76
g2
(cino.environment
Version
p77
c__builtin__
tuple
p78
(I1
I0
tp79
tp80
Rp81
tp82
a(S'objcopy'
p83
S'/usr/bin/avr-objcopy'
p84
tp85
a(S'board_models'
p86
cino.environment
BoardModels
p87
((lp88
(lp89
S'uno'
p90
a(dp91
S'build'
p92
(dp93
S'core'
p94
S'arduino'
p95
sS'mcu'
p96
S'atmega328p'
p97
sS'f_cpu'
p98
S'16000000L'
p99
sS'variant'
p100
S'standard'
p101
ssS'bootloader'
p102
(dp103
S'extended_fuses'
p104
S'0x05'
p105
sS'high_fuses'
p106
S'0xde'
p107
sS'low_fuses'
p108
S'0xff'
p109
sS'lock_bits'
p110
S'0x0F'
p111
sS'file'
p112
S'optiboot_atmega328.hex'
p113
sS'path'
p114
S'optiboot'
p115
sS'unlock_bits'
p116
S'0x3F'
p117
ssS'name'
p118
S'Arduino Uno'
p119
sS'upload'
p120
(dp121
S'speed'
p122
S'115200'
p123
sS'maximum_size'
p124
S'32256'
p125
sS'protocol'
p126
S'arduino'
p127
ssaa(lp128
S'atmega328'
p129
a(dp130
S'build'
p131
(dp132
S'core'
p133
S'arduino'
p134
sS'mcu'
p135
S'atmega328p'
p136
sS'f_cpu'
p137
S'16000000L'
p138
sS'variant'
p139
S'standard'
p140
ssS'bootloader'
p141
(dp142
S'extended_fuses'
p143
S'0x05'
p144
sS'high_fuses'
p145
S'0xDA'
p146
sS'low_fuses'
p147
S'0xFF'
p148
sS'lock_bits'
p149
S'0x0F'
p150
sS'file'
p151
S'ATmegaBOOT_168_atmega328.hex'
p152
sS'path'
p153
S'atmega'
p154
sS'unlock_bits'
p155
S'0x3F'
p156
ssS'name'
p157
S'Arduino Duemilanove w/ ATmega328'
p158
sS'upload'
p159
(dp160
S'speed'
p161
S'57600'
p162
sS'maximum_size'
p163
S'30720'
p164
sS'protocol'
p165
S'arduino'
p166
ssaa(lp167
S'diecimila'
p168
a(dp169
S'build'
p170
(dp171
S'core'
p172
S'arduino'
p173
sS'mcu'
p174
S'atmega168'
p175
sS'f_cpu'
p176
S'16000000L'
p177
sS'variant'
p178
S'standard'
p179
ssS'bootloader'
p180
(dp181
S'extended_fuses'
p182
S'0x00'
p183
sS'high_fuses'
p184
S'0xdd'
p185
sS'low_fuses'
p186
S'0xff'
p187
sS'lock_bits'
p188
S'0x0F'
p189
sS'file'
p190
S'ATmegaBOOT_168_diecimila.hex'
p191
sS'path'
p192
S'atmega'
p193
sS'unlock_bits'
p194
S'0x3F'
p195
ssS'name'
p196
S'Arduino Diecimila or Duemilanove w/ ATmega168'
p197
sS'upload'
p198
(dp199
S'speed'
p200
S'19200'
p201
sS'maximum_size'
p202
S'14336'
p203
sS'protocol'
p204
S'arduino'
p205
ssaa(lp206
S'nano328'
p207
a(dp208
S'build'
p209
(dp210
S'core'
p211
S'arduino'
p212
sS'mcu'
p213
S'atmega328p'
p214
sS'f_cpu'
p215
S'16000000L'
p216
sS'variant'
p217
S'eightanaloginputs'
p218
ssS'bootloader'
p219
(dp220
S'extended_fuses'
p221
S'0x05'
p222
sS'high_fuses'
p223
S'0xDA'
p224
sS'low_fuses'
p225
S'0xFF'
p226
sS'lock_bits'
p227
S'0x0F'
p228
sS'file'
p229
S'ATmegaBOOT_168_atmega328.hex'
p230
sS'path'
p231
S'atmega'
p232
sS'unlock_bits'
p233
S'0x3F'
p234
ssS'name'
p235
S'Arduino Nano w/ ATmega328'
p236
sS'upload'
p237
(dp238
S'speed'
p239
S'57600'
p240
sS'maximum_size'
p241
S'30720'
p242
sS'protocol'
p243
S'arduino'
p244
ssaa(lp245
S'nano'
p246
a(dp247
S'build'
p248
(dp249
S'core'
p250
S'arduino'
p251
sS'mcu'
p252
S'atmega168'
p253
sS'f_cpu'
p254
S'16000000L'
p255
sS'variant'
p256
S'eightanaloginputs'
p257
ssS'bootloader'
p258
(dp259
S'extended_fuses'
p260
S'0x00'
p261
sS'high_fuses'
p262
S'0xdd'
p263
sS'low_fuses'
p264
S'0xff'
p265
sS'lock_bits'
p266
S'0x0F'
p267
sS'file'
p268
S'ATmegaBOOT_168_diecimila.hex'
p269
sS'path'
p270
S'atmega'
p271
sS'unlock_bits'
p272
S'0x3F'
p273
ssS'name'
p274
S'Arduino Nano w/ ATmega168'
p275
sS'upload'
p276
(dp277
S'speed'
p278
S'19200'
p279
sS'maximum_size'
p280
S'14336'
p281
sS'protocol'
p282
S'arduino'
p283
ssaa(lp284
S'mega2560'
p285
a(dp286
S'build'
p287
(dp288
S'core'
p289
S'arduino'
p290
sS'mcu'
p291
S'atmega2560'
p292
sS'f_cpu'
p293
S'16000000L'
p294
sS'variant'
p295
S'mega'
p296
ssS'bootloader'
p297
(dp298
S'extended_fuses'
p299
S'0xFD'
p300
sS'high_fuses'
p301
S'0xD8'
p302
sS'low_fuses'
p303
S'0xFF'
p304
sS'lock_bits'
p305
S'0x0F'
p306
sS'file'
p307
S'stk500boot_v2_mega2560.hex'
p308
sS'path'
p309
S'stk500v2'
p310
sS'unlock_bits'
p311
S'0x3F'
p312
ssS'name'
p313
S'Arduino Mega 2560 or Mega ADK'
p314
sS'upload'
p315
(dp316
S'speed'
p317
S'115200'
p318
sS'maximum_size'
p319
S'258048'
p320
sS'protocol'
p321
S'stk500v2'
p322
ssaa(lp323
S'mega'
p324
a(dp325
S'build'
p326
(dp327
S'core'
p328
S'arduino'
p329
sS'mcu'
p330
S'atmega1280'
p331
sS'f_cpu'
p332
S'16000000L'
p333
sS'variant'
p334
S'mega'
p335
ssS'bootloader'
p336
(dp337
S'extended_fuses'
p338
S'0xF5'
p339
sS'high_fuses'
p340
S'0xDA'
p341
sS'low_fuses'
p342
S'0xFF'
p343
sS'lock_bits'
p344
S'0x0F'
p345
sS'file'
p346
S'ATmegaBOOT_168_atmega1280.hex'
p347
sS'path'
p348
S'atmega'
p349
sS'unlock_bits'
p350
S'0x3F'
p351
ssS'name'
p352
S'Arduino Mega (ATmega1280)'
p353
sS'upload'
p354
(dp355
S'speed'
p356
S'57600'
p357
sS'maximum_size'
p358
S'126976'
p359
sS'protocol'
p360
S'arduino'
p361
ssaa(lp362
S'mini328'
p363
a(dp364
S'build'
p365
(dp366
S'core'
p367
S'arduino'
p368
sS'mcu'
p369
S'atmega328p'
p370
sS'f_cpu'
p371
S'16000000L'
p372
sS'variant'
p373
S'eightanaloginputs'
p374
ssS'bootloader'
p375
(dp376
S'extended_fuses'
p377
S'0x05'
p378
sS'high_fuses'
p379
S'0xd8'
p380
sS'low_fuses'
p381
S'0xff'
p382
sS'lock_bits'
p383
S'0x0F'
p384
sS'file'
p385
S'optiboot_atmega328-Mini.hex'
p386
sS'path'
p387
S'optiboot'
p388
sS'unlock_bits'
p389
S'0x3F'
p390
ssS'name'
p391
S'Arduino Mini w/ ATmega328'
p392
sS'upload'
p393
(dp394
S'speed'
p395
S'115200'
p396
sS'maximum_size'
p397
S'28672'
p398
sS'protocol'
p399
S'stk500'
p400
ssaa(lp401
S'mini'
p402
a(dp403
S'build'
p404
(dp405
S'core'
p406
S'arduino'
p407
sS'mcu'
p408
S'atmega168'
p409
sS'f_cpu'
p410
S'16000000L'
p411
sS'variant'
p412
S'eightanaloginputs'
p413
ssS'bootloader'
p414
(dp415
S'extended_fuses'
p416
S'0x00'
p417
sS'high_fuses'
p418
S'0xdd'
p419
sS'low_fuses'
p420
S'0xff'
p421
sS'lock_bits'
p422
S'0x0F'
p423
sS'file'
p424
S'ATmegaBOOT_168_ng.hex'
p425
sS'path'
p426
S'atmega'
p427
sS'unlock_bits'
p428
S'0x3F'
p429
ssS'name'
p430
S'Arduino Mini w/ ATmega168'
p431
sS'upload'
p432
(dp433
S'speed'
p434
S'19200'
p435
sS'maximum_size'
p436
S'14336'
p437
sS'protocol'
p438
S'arduino'
p439
ssaa(lp440
S'ethernet'
p441
a(dp442
S'build'
p443
(dp444
S'f_cpu'
p445
S'16000000L'
p446
sS'mcu'
p447
S'atmega328p'
p448
sS'variant'
p449
S'standard'
p450
sS'core'
p451
S'arduino'
p452
ssS'bootloader'
p453
(dp454
S'extended_fuses'
p455
S'0x05'
p456
sS'high_fuses'
p457
S'0xde'
p458
sS'low_fuses'
p459
S'0xff'
p460
sS'lock_bits'
p461
S'0x0F'
p462
sS'file'
p463
S'optiboot_atmega328.hex'
p464
sS'path'
p465
S'optiboot'
p466
sS'unlock_bits'
p467
S'0x3F'
p468
ssS'name'
p469
S'Arduino Ethernet'
p470
sS'upload'
p471
(dp472
S'speed'
p473
S'115200'
p474
sS'maximum_size'
p475
S'32256'
p476
sS'protocol'
p477
S'arduino'
p478
ssaa(lp479
S'fio'
p480
a(dp481
S'build'
p482
(dp483
S'core'
p484
S'arduino'
p485
sS'mcu'
p486
S'atmega328p'
p487
sS'f_cpu'
p488
S'8000000L'
p489
sS'variant'
p490
S'eightanaloginputs'
p491
ssS'bootloader'
p492
(dp493
S'extended_fuses'
p494
S'0x05'
p495
sS'high_fuses'
p496
S'0xDA'
p497
sS'low_fuses'
p498
S'0xFF'
p499
sS'lock_bits'
p500
S'0x0F'
p501
sS'file'
p502
S'ATmegaBOOT_168_atmega328_pro_8MHz.hex'
p503
sS'path'
p504
S'arduino:atmega'
p505
sS'unlock_bits'
p506
S'0x3F'
p507
ssS'name'
p508
S'Arduino Fio'
p509
sS'upload'
p510
(dp511
S'speed'
p512
S'57600'
p513
sS'maximum_size'
p514
S'30720'
p515
sS'protocol'
p516
S'arduino'
p517
ssaa(lp518
S'bt328'
p519
a(dp520
S'build'
p521
(dp522
S'core'
p523
S'arduino'
p524
sS'mcu'
p525
S'atmega328p'
p526
sS'f_cpu'
p527
S'16000000L'
p528
sS'variant'
p529
S'eightanaloginputs'
p530
ssS'bootloader'
p531
(dp532
S'extended_fuses'
p533
S'0x05'
p534
sS'high_fuses'
p535
S'0xd8'
p536
sS'low_fuses'
p537
S'0xff'
p538
sS'lock_bits'
p539
S'0x0F'
p540
sS'file'
p541
S'ATmegaBOOT_168_atmega328_bt.hex'
p542
sS'path'
p543
S'bt'
p544
sS'unlock_bits'
p545
S'0x3F'
p546
ssS'name'
p547
S'Arduino BT w/ ATmega328'
p548
sS'upload'
p549
(dp550
S'speed'
p551
S'19200'
p552
sS'maximum_size'
p553
S'28672'
p554
sS'protocol'
p555
S'arduino'
p556
sS'disable_flushing'
p557
S'true'
p558
ssaa(lp559
S'bt'
p560
a(dp561
S'build'
p562
(dp563
S'core'
p564
S'arduino'
p565
sS'mcu'
p566
S'atmega168'
p567
sS'f_cpu'
p568
S'16000000L'
p569
sS'variant'
p570
S'eightanaloginputs'
p571
ssS'bootloader'
p572
(dp573
S'extended_fuses'
p574
S'0x00'
p575
sS'high_fuses'
p576
S'0xdd'
p577
sS'low_fuses'
p578
S'0xff'
p579
sS'lock_bits'
p580
S'0x0F'
p581
sS'file'
p582
S'ATmegaBOOT_168.hex'
p583
sS'path'
p584
S'bt'
p585
sS'unlock_bits'
p586
S'0x3F'
p587
ssS'name'
p588
S'Arduino BT w/ ATmega168'
p589
sS'upload'
p590
(dp591
S'speed'
p592
S'19200'
p593
sS'maximum_size'
p594
S'14336'
p595
sS'protocol'
p596
S'arduino'
p597
sS'disable_flushing'
p598
S'true'
p599
ssaa(lp600
S'lilypad328'
p601
a(dp602
S'build'
p603
(dp604
S'core'
p605
S'arduino'
p606
sS'mcu'
p607
S'atmega328p'
p608
sS'f_cpu'
p609
S'8000000L'
p610
sS'variant'
p611
S'standard'
p612
ssS'bootloader'
p613
(dp614
S'extended_fuses'
p615
S'0x05'
p616
sS'high_fuses'
p617
S'0xDA'
p618
sS'low_fuses'
p619
S'0xFF'
p620
sS'lock_bits'
p621
S'0x0F'
p622
sS'file'
p623
S'ATmegaBOOT_168_atmega328_pro_8MHz.hex'
p624
sS'path'
p625
S'atmega'
p626
sS'unlock_bits'
p627
S'0x3F'
p628
ssS'name'
p629
S'LilyPad Arduino w/ ATmega328'
p630
sS'upload'
p631
(dp632
S'speed'
p633
S'57600'
p634
sS'maximum_size'
p635
S'30720'
p636
sS'protocol'
p637
S'arduino'
p638
ssaa(lp639
S'lilypad'
p640
a(dp641
S'build'
p642
(dp643
S'core'
p644
S'arduino'
p645
sS'mcu'
p646
S'atmega168'
p647
sS'f_cpu'
p648
S'8000000L'
p649
sS'variant'
p650
S'standard'
p651
ssS'bootloader'
p652
(dp653
S'extended_fuses'
p654
S'0x00'
p655
sS'high_fuses'
p656
S'0xdd'
p657
sS'low_fuses'
p658
S'0xe2'
p659
sS'lock_bits'
p660
S'0x0F'
p661
sS'file'
p662
S'LilyPadBOOT_168.hex'
p663
sS'path'
p664
S'lilypad'
p665
sS'unlock_bits'
p666
S'0x3F'
p667
ssS'name'
p668
S'LilyPad Arduino w/ ATmega168'
p669
sS'upload'
p670
(dp671
S'speed'
p672
S'19200'
p673
sS'maximum_size'
p674
S'14336'
p675
sS'protocol'
p676
S'arduino'
p677
ssaa(lp678
S'pro5v328'
p679
a(dp680
S'build'
p681
(dp682
S'core'
p683
S'arduino'
p684
sS'mcu'
p685
S'atmega328p'
p686
sS'f_cpu'
p687
S'16000000L'
p688
sS'variant'
p689
S'standard'
p690
ssS'bootloader'
p691
(dp692
S'extended_fuses'
p693
S'0x05'
p694
sS'high_fuses'
p695
S'0xDA'
p696
sS'low_fuses'
p697
S'0xFF'
p698
sS'lock_bits'
p699
S'0x0F'
p700
sS'file'
p701
S'ATmegaBOOT_168_atmega328.hex'
p702
sS'path'
p703
S'atmega'
p704
sS'unlock_bits'
p705
S'0x3F'
p706
ssS'name'
p707
S'Arduino Pro or Pro Mini (5V, 16 MHz) w/ ATmega328'
p708
sS'upload'
p709
(dp710
S'speed'
p711
S'57600'
p712
sS'maximum_size'
p713
S'30720'
p714
sS'protocol'
p715
S'arduino'
p716
ssaa(lp717
S'pro5v'
p718
a(dp719
S'build'
p720
(dp721
S'core'
p722
S'arduino'
p723
sS'mcu'
p724
S'atmega168'
p725
sS'f_cpu'
p726
S'16000000L'
p727
sS'variant'
p728
S'standard'
p729
ssS'bootloader'
p730
(dp731
S'extended_fuses'
p732
S'0x00'
p733
sS'high_fuses'
p734
S'0xdd'
p735
sS'low_fuses'
p736
S'0xff'
p737
sS'lock_bits'
p738
S'0x0F'
p739
sS'file'
p740
S'ATmegaBOOT_168_diecimila.hex'
p741
sS'path'
p742
S'atmega'
p743
sS'unlock_bits'
p744
S'0x3F'
p745
ssS'name'
p746
S'Arduino Pro or Pro Mini (5V, 16 MHz) w/ ATmega168'
p747
sS'upload'
p748
(dp749
S'speed'
p750
S'19200'
p751
sS'maximum_size'
p752
S'14336'
p753
sS'protocol'
p754
S'arduino'
p755
ssaa(lp756
S'pro328'
p757
a(dp758
S'build'
p759
(dp760
S'core'
p761
S'arduino'
p762
sS'mcu'
p763
S'atmega328p'
p764
sS'f_cpu'
p765
S'8000000L'
p766
sS'variant'
p767
S'standard'
p768
ssS'bootloader'
p769
(dp770
S'extended_fuses'
p771
S'0x05'
p772
sS'high_fuses'
p773
S'0xDA'
p774
sS'low_fuses'
p775
S'0xFF'
p776
sS'lock_bits'
p777
S'0x0F'
p778
sS'file'
p779
S'ATmegaBOOT_168_atmega328_pro_8MHz.hex'
p780
sS'path'
p781
S'atmega'
p782
sS'unlock_bits'
p783
S'0x3F'
p784
ssS'name'
p785
S'Arduino Pro or Pro Mini (3.3V, 8 MHz) w/ ATmega328'
p786
sS'upload'
p787
(dp788
S'speed'
p789
S'57600'
p790
sS'maximum_size'
p791
S'30720'
p792
sS'protocol'
p793
S'arduino'
p794
ssaa(lp795
S'pro'
p796
a(dp797
S'build'
p798
(dp799
S'core'
p800
S'arduino'
p801
sS'mcu'
p802
S'atmega168'
p803
sS'f_cpu'
p804
S'8000000L'
p805
sS'variant'
p806
S'standard'
p807
ssS'bootloader'
p808
(dp809
S'extended_fuses'
p810
S'0x00'
p811
sS'high_fuses'
p812
S'0xdd'
p813
sS'low_fuses'
p814
S'0xc6'
p815
sS'lock_bits'
p816
S'0x0F'
p817
sS'file'
p818
S'ATmegaBOOT_168_pro_8MHz.hex'
p819
sS'path'
p820
S'atmega'
p821
sS'unlock_bits'
p822
S'0x3F'
p823
ssS'name'
p824
S'Arduino Pro or Pro Mini (3.3V, 8 MHz) w/ ATmega168'
p825
sS'upload'
p826
(dp827
S'speed'
p828
S'19200'
p829
sS'maximum_size'
p830
S'14336'
p831
sS'protocol'
p832
S'arduino'
p833
ssaa(lp834
S'atmega168'
p835
a(dp836
S'build'
p837
(dp838
S'core'
p839
S'arduino'
p840
sS'mcu'
p841
S'atmega168'
p842
sS'f_cpu'
p843
S'16000000L'
p844
sS'variant'
p845
S'standard'
p846
ssS'bootloader'
p847
(dp848
S'extended_fuses'
p849
S'0x00'
p850
sS'high_fuses'
p851
S'0xdd'
p852
sS'low_fuses'
p853
S'0xff'
p854
sS'lock_bits'
p855
S'0x0F'
p856
sS'file'
p857
S'ATmegaBOOT_168_ng.hex'
p858
sS'path'
p859
S'atmega'
p860
sS'unlock_bits'
p861
S'0x3F'
p862
ssS'name'
p863
S'Arduino NG or older w/ ATmega168'
p864
sS'upload'
p865
(dp866
S'speed'
p867
S'19200'
p868
sS'maximum_size'
p869
S'14336'
p870
sS'protocol'
p871
S'arduino'
p872
ssaa(lp873
S'atmega8'
p874
a(dp875
S'build'
p876
(dp877
S'core'
p878
S'arduino'
p879
sS'mcu'
p880
S'atmega8'
p881
sS'f_cpu'
p882
S'16000000L'
p883
sS'variant'
p884
S'standard'
p885
ssS'bootloader'
p886
(dp887
S'high_fuses'
p888
S'0xca'
p889
sS'low_fuses'
p890
S'0xdf'
p891
sS'lock_bits'
p892
S'0x0F'
p893
sS'file'
p894
S'ATmegaBOOT.hex'
p895
sS'path'
p896
S'atmega8'
p897
sS'unlock_bits'
p898
S'0x3F'
p899
ssS'name'
p900
S'Arduino NG or older w/ ATmega8'
p901
sS'upload'
p902
(dp903
S'speed'
p904
S'19200'
p905
sS'maximum_size'
p906
S'7168'
p907
sS'protocol'
p908
S'arduino'
p909
ssaatp910
Rp911
(dp912
S'default'
p913
S'uno'
p914
sbtp915
a(S'cxx'
p916
S'/usr/bin/avr-g++'
p917
tp918
a.