(lp0
(S'elfflags'
p1
ccopy_reg
_reconstructor
p2
(cino.utils
SpaceList
p3
c__builtin__
list
p4
(lp5
S'-Os'
p6
aS'-Wl,--gc-sections'
p7
aS'-mmcu=atmega328p'
p8
atp9
Rp10
tp11
a(S'version.txt'
p12
S'/usr/share/arduino/lib/version.txt'
p13
tp14
a(S'used_libs'
p15
(lp16
S'/usr/share/arduino/hardware/arduino/cores/arduino'
p17
atp18
a(S'cc'
p19
S'/usr/bin/avr-gcc'
p20
tp21
a(S'cflags'
p22
g2
(g3
g4
(lp23
g8
aS'-ffunction-sections'
p24
aS'-fdata-sections'
p25
aS'-g'
p26
ag6
aS'-w'
p27
aS'-DF_CPU=16000000L'
p28
aS'-DARDUINO=100'
p29
aS'-I/usr/share/arduino/hardware/arduino/cores/arduino'
p30
aS'-I/usr/share/arduino/hardware/arduino/variants/standard'
p31
aS'-I/usr/share/arduino/hardware/arduino/cores/arduino'
p32
atp33
Rp34
tp35
a(S'build_dir'
p36
S'.build/uno'
p37
tp38
a(S'arduino_core_dir'
p39
g17
tp40
a(S'boards.txt'
p41
S'/usr/share/arduino/hardware/arduino/boards.txt'
p42
tp43
a(S'cxxflags'
p44
g2
(g3
g4
(lp45
S'-fno-exceptions'
p46
atp47
Rp48
tp49
a(S'arduino_variants_dir'
p50
S'/usr/share/arduino/hardware/arduino/variants'
p51
tp52
a(S'ar'
p53
S'/usr/bin/avr-ar'
p54
tp55
a(S'names'
p56
(dp57
S'cpp'
p58
S'%s.cpp'
p59
sS'obj'
p60
S'%s.o'
p61
sS'deps'
p62
S'%s.d'
p63
sS'lib'
p64
S'lib%s.a'
p65
stp66
a(S'deps'
p67
g2
(g3
g4
(lp68
S'.build/uno/src/dependencies.d'
p69
aS'.build/uno/arduino/dependencies.d'
p70
atp71
Rp72
tp73
a(S'arduino_libraries_dir'
p74
S'/usr/share/arduino/libraries'
p75
tp76
a(S'arduino_lib_version'
p77
g2
(cino.environment
Version
p78
c__builtin__
tuple
p79
(I1
I0
tp80
tp81
Rp82
tp83
a(S'objcopy'
p84
S'/usr/bin/avr-objcopy'
p85
tp86
a(S'board_models'
p87
cino.environment
BoardModels
p88
((lp89
(lp90
S'uno'
p91
a(dp92
S'build'
p93
(dp94
S'core'
p95
S'arduino'
p96
sS'mcu'
p97
S'atmega328p'
p98
sS'f_cpu'
p99
S'16000000L'
p100
sS'variant'
p101
S'standard'
p102
ssS'bootloader'
p103
(dp104
S'extended_fuses'
p105
S'0x05'
p106
sS'high_fuses'
p107
S'0xde'
p108
sS'low_fuses'
p109
S'0xff'
p110
sS'lock_bits'
p111
S'0x0F'
p112
sS'file'
p113
S'optiboot_atmega328.hex'
p114
sS'path'
p115
S'optiboot'
p116
sS'unlock_bits'
p117
S'0x3F'
p118
ssS'upload'
p119
(dp120
S'protocol'
p121
S'arduino'
p122
sS'maximum_size'
p123
S'32256'
p124
sS'speed'
p125
S'115200'
p126
ssS'name'
p127
S'Arduino Uno'
p128
saa(lp129
S'atmega328'
p130
a(dp131
S'build'
p132
(dp133
S'core'
p134
S'arduino'
p135
sS'mcu'
p136
S'atmega328p'
p137
sS'f_cpu'
p138
S'16000000L'
p139
sS'variant'
p140
S'standard'
p141
ssS'bootloader'
p142
(dp143
S'extended_fuses'
p144
S'0x05'
p145
sS'high_fuses'
p146
S'0xDA'
p147
sS'low_fuses'
p148
S'0xFF'
p149
sS'lock_bits'
p150
S'0x0F'
p151
sS'file'
p152
S'ATmegaBOOT_168_atmega328.hex'
p153
sS'path'
p154
S'atmega'
p155
sS'unlock_bits'
p156
S'0x3F'
p157
ssS'upload'
p158
(dp159
S'protocol'
p160
S'arduino'
p161
sS'maximum_size'
p162
S'30720'
p163
sS'speed'
p164
S'57600'
p165
ssS'name'
p166
S'Arduino Duemilanove w/ ATmega328'
p167
saa(lp168
S'diecimila'
p169
a(dp170
S'build'
p171
(dp172
S'core'
p173
S'arduino'
p174
sS'mcu'
p175
S'atmega168'
p176
sS'f_cpu'
p177
S'16000000L'
p178
sS'variant'
p179
S'standard'
p180
ssS'bootloader'
p181
(dp182
S'extended_fuses'
p183
S'0x00'
p184
sS'high_fuses'
p185
S'0xdd'
p186
sS'low_fuses'
p187
S'0xff'
p188
sS'lock_bits'
p189
S'0x0F'
p190
sS'file'
p191
S'ATmegaBOOT_168_diecimila.hex'
p192
sS'path'
p193
S'atmega'
p194
sS'unlock_bits'
p195
S'0x3F'
p196
ssS'upload'
p197
(dp198
S'protocol'
p199
S'arduino'
p200
sS'maximum_size'
p201
S'14336'
p202
sS'speed'
p203
S'19200'
p204
ssS'name'
p205
S'Arduino Diecimila or Duemilanove w/ ATmega168'
p206
saa(lp207
S'nano328'
p208
a(dp209
S'build'
p210
(dp211
S'core'
p212
S'arduino'
p213
sS'mcu'
p214
S'atmega328p'
p215
sS'f_cpu'
p216
S'16000000L'
p217
sS'variant'
p218
S'eightanaloginputs'
p219
ssS'bootloader'
p220
(dp221
S'extended_fuses'
p222
S'0x05'
p223
sS'high_fuses'
p224
S'0xDA'
p225
sS'low_fuses'
p226
S'0xFF'
p227
sS'lock_bits'
p228
S'0x0F'
p229
sS'file'
p230
S'ATmegaBOOT_168_atmega328.hex'
p231
sS'path'
p232
S'atmega'
p233
sS'unlock_bits'
p234
S'0x3F'
p235
ssS'upload'
p236
(dp237
S'protocol'
p238
S'arduino'
p239
sS'maximum_size'
p240
S'30720'
p241
sS'speed'
p242
S'57600'
p243
ssS'name'
p244
S'Arduino Nano w/ ATmega328'
p245
saa(lp246
S'nano'
p247
a(dp248
S'build'
p249
(dp250
S'core'
p251
S'arduino'
p252
sS'mcu'
p253
S'atmega168'
p254
sS'f_cpu'
p255
S'16000000L'
p256
sS'variant'
p257
S'eightanaloginputs'
p258
ssS'bootloader'
p259
(dp260
S'extended_fuses'
p261
S'0x00'
p262
sS'high_fuses'
p263
S'0xdd'
p264
sS'low_fuses'
p265
S'0xff'
p266
sS'lock_bits'
p267
S'0x0F'
p268
sS'file'
p269
S'ATmegaBOOT_168_diecimila.hex'
p270
sS'path'
p271
S'atmega'
p272
sS'unlock_bits'
p273
S'0x3F'
p274
ssS'upload'
p275
(dp276
S'protocol'
p277
S'arduino'
p278
sS'maximum_size'
p279
S'14336'
p280
sS'speed'
p281
S'19200'
p282
ssS'name'
p283
S'Arduino Nano w/ ATmega168'
p284
saa(lp285
S'mega2560'
p286
a(dp287
S'build'
p288
(dp289
S'core'
p290
S'arduino'
p291
sS'mcu'
p292
S'atmega2560'
p293
sS'f_cpu'
p294
S'16000000L'
p295
sS'variant'
p296
S'mega'
p297
ssS'bootloader'
p298
(dp299
S'extended_fuses'
p300
S'0xFD'
p301
sS'high_fuses'
p302
S'0xD8'
p303
sS'low_fuses'
p304
S'0xFF'
p305
sS'lock_bits'
p306
S'0x0F'
p307
sS'file'
p308
S'stk500boot_v2_mega2560.hex'
p309
sS'path'
p310
S'stk500v2'
p311
sS'unlock_bits'
p312
S'0x3F'
p313
ssS'upload'
p314
(dp315
S'protocol'
p316
S'stk500v2'
p317
sS'maximum_size'
p318
S'258048'
p319
sS'speed'
p320
S'115200'
p321
ssS'name'
p322
S'Arduino Mega 2560 or Mega ADK'
p323
saa(lp324
S'mega'
p325
a(dp326
S'build'
p327
(dp328
S'core'
p329
S'arduino'
p330
sS'mcu'
p331
S'atmega1280'
p332
sS'f_cpu'
p333
S'16000000L'
p334
sS'variant'
p335
S'mega'
p336
ssS'bootloader'
p337
(dp338
S'extended_fuses'
p339
S'0xF5'
p340
sS'high_fuses'
p341
S'0xDA'
p342
sS'low_fuses'
p343
S'0xFF'
p344
sS'lock_bits'
p345
S'0x0F'
p346
sS'file'
p347
S'ATmegaBOOT_168_atmega1280.hex'
p348
sS'path'
p349
S'atmega'
p350
sS'unlock_bits'
p351
S'0x3F'
p352
ssS'upload'
p353
(dp354
S'protocol'
p355
S'arduino'
p356
sS'maximum_size'
p357
S'126976'
p358
sS'speed'
p359
S'57600'
p360
ssS'name'
p361
S'Arduino Mega (ATmega1280)'
p362
saa(lp363
S'mini328'
p364
a(dp365
S'build'
p366
(dp367
S'core'
p368
S'arduino'
p369
sS'mcu'
p370
S'atmega328p'
p371
sS'f_cpu'
p372
S'16000000L'
p373
sS'variant'
p374
S'eightanaloginputs'
p375
ssS'bootloader'
p376
(dp377
S'extended_fuses'
p378
S'0x05'
p379
sS'high_fuses'
p380
S'0xd8'
p381
sS'low_fuses'
p382
S'0xff'
p383
sS'lock_bits'
p384
S'0x0F'
p385
sS'file'
p386
S'optiboot_atmega328-Mini.hex'
p387
sS'path'
p388
S'optiboot'
p389
sS'unlock_bits'
p390
S'0x3F'
p391
ssS'upload'
p392
(dp393
S'protocol'
p394
S'stk500'
p395
sS'maximum_size'
p396
S'28672'
p397
sS'speed'
p398
S'115200'
p399
ssS'name'
p400
S'Arduino Mini w/ ATmega328'
p401
saa(lp402
S'mini'
p403
a(dp404
S'build'
p405
(dp406
S'core'
p407
S'arduino'
p408
sS'mcu'
p409
S'atmega168'
p410
sS'f_cpu'
p411
S'16000000L'
p412
sS'variant'
p413
S'eightanaloginputs'
p414
ssS'bootloader'
p415
(dp416
S'extended_fuses'
p417
S'0x00'
p418
sS'high_fuses'
p419
S'0xdd'
p420
sS'low_fuses'
p421
S'0xff'
p422
sS'lock_bits'
p423
S'0x0F'
p424
sS'file'
p425
S'ATmegaBOOT_168_ng.hex'
p426
sS'path'
p427
S'atmega'
p428
sS'unlock_bits'
p429
S'0x3F'
p430
ssS'upload'
p431
(dp432
S'protocol'
p433
S'arduino'
p434
sS'maximum_size'
p435
S'14336'
p436
sS'speed'
p437
S'19200'
p438
ssS'name'
p439
S'Arduino Mini w/ ATmega168'
p440
saa(lp441
S'ethernet'
p442
a(dp443
S'build'
p444
(dp445
S'variant'
p446
S'standard'
p447
sS'mcu'
p448
S'atmega328p'
p449
sS'f_cpu'
p450
S'16000000L'
p451
sS'core'
p452
S'arduino'
p453
ssS'bootloader'
p454
(dp455
S'extended_fuses'
p456
S'0x05'
p457
sS'high_fuses'
p458
S'0xde'
p459
sS'low_fuses'
p460
S'0xff'
p461
sS'lock_bits'
p462
S'0x0F'
p463
sS'file'
p464
S'optiboot_atmega328.hex'
p465
sS'path'
p466
S'optiboot'
p467
sS'unlock_bits'
p468
S'0x3F'
p469
ssS'upload'
p470
(dp471
S'protocol'
p472
S'arduino'
p473
sS'maximum_size'
p474
S'32256'
p475
sS'speed'
p476
S'115200'
p477
ssS'name'
p478
S'Arduino Ethernet'
p479
saa(lp480
S'fio'
p481
a(dp482
S'build'
p483
(dp484
S'core'
p485
S'arduino'
p486
sS'mcu'
p487
S'atmega328p'
p488
sS'f_cpu'
p489
S'8000000L'
p490
sS'variant'
p491
S'eightanaloginputs'
p492
ssS'bootloader'
p493
(dp494
S'extended_fuses'
p495
S'0x05'
p496
sS'high_fuses'
p497
S'0xDA'
p498
sS'low_fuses'
p499
S'0xFF'
p500
sS'lock_bits'
p501
S'0x0F'
p502
sS'file'
p503
S'ATmegaBOOT_168_atmega328_pro_8MHz.hex'
p504
sS'path'
p505
S'arduino:atmega'
p506
sS'unlock_bits'
p507
S'0x3F'
p508
ssS'upload'
p509
(dp510
S'protocol'
p511
S'arduino'
p512
sS'maximum_size'
p513
S'30720'
p514
sS'speed'
p515
S'57600'
p516
ssS'name'
p517
S'Arduino Fio'
p518
saa(lp519
S'bt328'
p520
a(dp521
S'build'
p522
(dp523
S'core'
p524
S'arduino'
p525
sS'mcu'
p526
S'atmega328p'
p527
sS'f_cpu'
p528
S'16000000L'
p529
sS'variant'
p530
S'eightanaloginputs'
p531
ssS'bootloader'
p532
(dp533
S'extended_fuses'
p534
S'0x05'
p535
sS'high_fuses'
p536
S'0xd8'
p537
sS'low_fuses'
p538
S'0xff'
p539
sS'lock_bits'
p540
S'0x0F'
p541
sS'file'
p542
S'ATmegaBOOT_168_atmega328_bt.hex'
p543
sS'path'
p544
S'bt'
p545
sS'unlock_bits'
p546
S'0x3F'
p547
ssS'upload'
p548
(dp549
S'protocol'
p550
S'arduino'
p551
sS'maximum_size'
p552
S'28672'
p553
sS'speed'
p554
S'19200'
p555
sS'disable_flushing'
p556
S'true'
p557
ssS'name'
p558
S'Arduino BT w/ ATmega328'
p559
saa(lp560
S'bt'
p561
a(dp562
S'build'
p563
(dp564
S'core'
p565
S'arduino'
p566
sS'mcu'
p567
S'atmega168'
p568
sS'f_cpu'
p569
S'16000000L'
p570
sS'variant'
p571
S'eightanaloginputs'
p572
ssS'bootloader'
p573
(dp574
S'extended_fuses'
p575
S'0x00'
p576
sS'high_fuses'
p577
S'0xdd'
p578
sS'low_fuses'
p579
S'0xff'
p580
sS'lock_bits'
p581
S'0x0F'
p582
sS'file'
p583
S'ATmegaBOOT_168.hex'
p584
sS'path'
p585
S'bt'
p586
sS'unlock_bits'
p587
S'0x3F'
p588
ssS'upload'
p589
(dp590
S'protocol'
p591
S'arduino'
p592
sS'maximum_size'
p593
S'14336'
p594
sS'speed'
p595
S'19200'
p596
sS'disable_flushing'
p597
S'true'
p598
ssS'name'
p599
S'Arduino BT w/ ATmega168'
p600
saa(lp601
S'lilypad328'
p602
a(dp603
S'build'
p604
(dp605
S'core'
p606
S'arduino'
p607
sS'mcu'
p608
S'atmega328p'
p609
sS'f_cpu'
p610
S'8000000L'
p611
sS'variant'
p612
S'standard'
p613
ssS'bootloader'
p614
(dp615
S'extended_fuses'
p616
S'0x05'
p617
sS'high_fuses'
p618
S'0xDA'
p619
sS'low_fuses'
p620
S'0xFF'
p621
sS'lock_bits'
p622
S'0x0F'
p623
sS'file'
p624
S'ATmegaBOOT_168_atmega328_pro_8MHz.hex'
p625
sS'path'
p626
S'atmega'
p627
sS'unlock_bits'
p628
S'0x3F'
p629
ssS'upload'
p630
(dp631
S'protocol'
p632
S'arduino'
p633
sS'maximum_size'
p634
S'30720'
p635
sS'speed'
p636
S'57600'
p637
ssS'name'
p638
S'LilyPad Arduino w/ ATmega328'
p639
saa(lp640
S'lilypad'
p641
a(dp642
S'build'
p643
(dp644
S'core'
p645
S'arduino'
p646
sS'mcu'
p647
S'atmega168'
p648
sS'f_cpu'
p649
S'8000000L'
p650
sS'variant'
p651
S'standard'
p652
ssS'bootloader'
p653
(dp654
S'extended_fuses'
p655
S'0x00'
p656
sS'high_fuses'
p657
S'0xdd'
p658
sS'low_fuses'
p659
S'0xe2'
p660
sS'lock_bits'
p661
S'0x0F'
p662
sS'file'
p663
S'LilyPadBOOT_168.hex'
p664
sS'path'
p665
S'lilypad'
p666
sS'unlock_bits'
p667
S'0x3F'
p668
ssS'upload'
p669
(dp670
S'protocol'
p671
S'arduino'
p672
sS'maximum_size'
p673
S'14336'
p674
sS'speed'
p675
S'19200'
p676
ssS'name'
p677
S'LilyPad Arduino w/ ATmega168'
p678
saa(lp679
S'pro5v328'
p680
a(dp681
S'build'
p682
(dp683
S'core'
p684
S'arduino'
p685
sS'mcu'
p686
S'atmega328p'
p687
sS'f_cpu'
p688
S'16000000L'
p689
sS'variant'
p690
S'standard'
p691
ssS'bootloader'
p692
(dp693
S'extended_fuses'
p694
S'0x05'
p695
sS'high_fuses'
p696
S'0xDA'
p697
sS'low_fuses'
p698
S'0xFF'
p699
sS'lock_bits'
p700
S'0x0F'
p701
sS'file'
p702
S'ATmegaBOOT_168_atmega328.hex'
p703
sS'path'
p704
S'atmega'
p705
sS'unlock_bits'
p706
S'0x3F'
p707
ssS'upload'
p708
(dp709
S'protocol'
p710
S'arduino'
p711
sS'maximum_size'
p712
S'30720'
p713
sS'speed'
p714
S'57600'
p715
ssS'name'
p716
S'Arduino Pro or Pro Mini (5V, 16 MHz) w/ ATmega328'
p717
saa(lp718
S'pro5v'
p719
a(dp720
S'build'
p721
(dp722
S'core'
p723
S'arduino'
p724
sS'mcu'
p725
S'atmega168'
p726
sS'f_cpu'
p727
S'16000000L'
p728
sS'variant'
p729
S'standard'
p730
ssS'bootloader'
p731
(dp732
S'extended_fuses'
p733
S'0x00'
p734
sS'high_fuses'
p735
S'0xdd'
p736
sS'low_fuses'
p737
S'0xff'
p738
sS'lock_bits'
p739
S'0x0F'
p740
sS'file'
p741
S'ATmegaBOOT_168_diecimila.hex'
p742
sS'path'
p743
S'atmega'
p744
sS'unlock_bits'
p745
S'0x3F'
p746
ssS'upload'
p747
(dp748
S'protocol'
p749
S'arduino'
p750
sS'maximum_size'
p751
S'14336'
p752
sS'speed'
p753
S'19200'
p754
ssS'name'
p755
S'Arduino Pro or Pro Mini (5V, 16 MHz) w/ ATmega168'
p756
saa(lp757
S'pro328'
p758
a(dp759
S'build'
p760
(dp761
S'core'
p762
S'arduino'
p763
sS'mcu'
p764
S'atmega328p'
p765
sS'f_cpu'
p766
S'8000000L'
p767
sS'variant'
p768
S'standard'
p769
ssS'bootloader'
p770
(dp771
S'extended_fuses'
p772
S'0x05'
p773
sS'high_fuses'
p774
S'0xDA'
p775
sS'low_fuses'
p776
S'0xFF'
p777
sS'lock_bits'
p778
S'0x0F'
p779
sS'file'
p780
S'ATmegaBOOT_168_atmega328_pro_8MHz.hex'
p781
sS'path'
p782
S'atmega'
p783
sS'unlock_bits'
p784
S'0x3F'
p785
ssS'upload'
p786
(dp787
S'protocol'
p788
S'arduino'
p789
sS'maximum_size'
p790
S'30720'
p791
sS'speed'
p792
S'57600'
p793
ssS'name'
p794
S'Arduino Pro or Pro Mini (3.3V, 8 MHz) w/ ATmega328'
p795
saa(lp796
S'pro'
p797
a(dp798
S'build'
p799
(dp800
S'core'
p801
S'arduino'
p802
sS'mcu'
p803
S'atmega168'
p804
sS'f_cpu'
p805
S'8000000L'
p806
sS'variant'
p807
S'standard'
p808
ssS'bootloader'
p809
(dp810
S'extended_fuses'
p811
S'0x00'
p812
sS'high_fuses'
p813
S'0xdd'
p814
sS'low_fuses'
p815
S'0xc6'
p816
sS'lock_bits'
p817
S'0x0F'
p818
sS'file'
p819
S'ATmegaBOOT_168_pro_8MHz.hex'
p820
sS'path'
p821
S'atmega'
p822
sS'unlock_bits'
p823
S'0x3F'
p824
ssS'upload'
p825
(dp826
S'protocol'
p827
S'arduino'
p828
sS'maximum_size'
p829
S'14336'
p830
sS'speed'
p831
S'19200'
p832
ssS'name'
p833
S'Arduino Pro or Pro Mini (3.3V, 8 MHz) w/ ATmega168'
p834
saa(lp835
S'atmega168'
p836
a(dp837
S'build'
p838
(dp839
S'core'
p840
S'arduino'
p841
sS'mcu'
p842
S'atmega168'
p843
sS'f_cpu'
p844
S'16000000L'
p845
sS'variant'
p846
S'standard'
p847
ssS'bootloader'
p848
(dp849
S'extended_fuses'
p850
S'0x00'
p851
sS'high_fuses'
p852
S'0xdd'
p853
sS'low_fuses'
p854
S'0xff'
p855
sS'lock_bits'
p856
S'0x0F'
p857
sS'file'
p858
S'ATmegaBOOT_168_ng.hex'
p859
sS'path'
p860
S'atmega'
p861
sS'unlock_bits'
p862
S'0x3F'
p863
ssS'upload'
p864
(dp865
S'protocol'
p866
S'arduino'
p867
sS'maximum_size'
p868
S'14336'
p869
sS'speed'
p870
S'19200'
p871
ssS'name'
p872
S'Arduino NG or older w/ ATmega168'
p873
saa(lp874
S'atmega8'
p875
a(dp876
S'build'
p877
(dp878
S'core'
p879
S'arduino'
p880
sS'mcu'
p881
S'atmega8'
p882
sS'f_cpu'
p883
S'16000000L'
p884
sS'variant'
p885
S'standard'
p886
ssS'bootloader'
p887
(dp888
S'high_fuses'
p889
S'0xca'
p890
sS'low_fuses'
p891
S'0xdf'
p892
sS'lock_bits'
p893
S'0x0F'
p894
sS'file'
p895
S'ATmegaBOOT.hex'
p896
sS'path'
p897
S'atmega8'
p898
sS'unlock_bits'
p899
S'0x3F'
p900
ssS'upload'
p901
(dp902
S'protocol'
p903
S'arduino'
p904
sS'maximum_size'
p905
S'7168'
p906
sS'speed'
p907
S'19200'
p908
ssS'name'
p909
S'Arduino NG or older w/ ATmega8'
p910
saatp911
Rp912
(dp913
S'default'
p914
S'uno'
p915
sbtp916
a(S'cxx'
p917
S'/usr/bin/avr-g++'
p918
tp919
a.