(lp0
(S'elfflags'
p1
ccopy_reg
_reconstructor
p2
(cino.utils
SpaceList
p3
c__builtin__
list
p4
(lp5
S'-Os'
p6
aS'-Wl,--gc-sections'
p7
aS'-mmcu=atmega328p'
p8
atp9
Rp10
tp11
a(S'version.txt'
p12
S'/usr/share/arduino/lib/version.txt'
p13
tp14
a(S'used_libs'
p15
(lp16
S'/usr/share/arduino/hardware/arduino/cores/arduino'
p17
atp18
a(S'cc'
p19
S'/usr/bin/avr-gcc'
p20
tp21
a(S'build_dir'
p22
S'.build/uno'
p23
tp24
a(S'arduino_core_dir'
p25
g17
tp26
a(S'boards.txt'
p27
S'/usr/share/arduino/hardware/arduino/boards.txt'
p28
tp29
a(S'cxxflags'
p30
g2
(g3
g4
(lp31
S'-fno-exceptions'
p32
atp33
Rp34
tp35
a(S'arduino_variants_dir'
p36
S'/usr/share/arduino/hardware/arduino/variants'
p37
tp38
a(S'deps'
p39
g2
(g3
g4
(lp40
S'.build/uno/src/dependencies.d'
p41
aS'.build/uno/arduino/dependencies.d'
p42
atp43
Rp44
tp45
a(S'ar'
p46
S'/usr/bin/avr-ar'
p47
tp48
a(S'names'
p49
(dp50
S'cpp'
p51
S'%s.cpp'
p52
sS'obj'
p53
S'%s.o'
p54
sS'deps'
p55
S'%s.d'
p56
sS'lib'
p57
S'lib%s.a'
p58
stp59
a(S'cflags'
p60
g2
(g3
g4
(lp61
g8
aS'-ffunction-sections'
p62
aS'-fdata-sections'
p63
aS'-g'
p64
ag6
aS'-w'
p65
aS'-DF_CPU=16000000L'
p66
aS'-DARDUINO=100'
p67
aS'-I/usr/share/arduino/hardware/arduino/cores/arduino'
p68
aS'-I/usr/share/arduino/hardware/arduino/variants/standard'
p69
aS'-I/usr/share/arduino/hardware/arduino/cores/arduino'
p70
atp71
Rp72
tp73
a(S'arduino_libraries_dir'
p74
S'/usr/share/arduino/libraries'
p75
tp76
a(S'arduino_lib_version'
p77
g2
(cino.environment
Version
p78
c__builtin__
tuple
p79
(I1
I0
tp80
tp81
Rp82
tp83
a(S'objcopy'
p84
S'/usr/bin/avr-objcopy'
p85
tp86
a(S'board_models'
p87
cino.environment
BoardModels
p88
((lp89
(lp90
S'uno'
p91
a(dp92
S'bootloader'
p93
(dp94
S'extended_fuses'
p95
S'0x05'
p96
sS'high_fuses'
p97
S'0xde'
p98
sS'low_fuses'
p99
S'0xff'
p100
sS'lock_bits'
p101
S'0x0F'
p102
sS'file'
p103
S'optiboot_atmega328.hex'
p104
sS'path'
p105
S'optiboot'
p106
sS'unlock_bits'
p107
S'0x3F'
p108
ssS'upload'
p109
(dp110
S'speed'
p111
S'115200'
p112
sS'maximum_size'
p113
S'32256'
p114
sS'protocol'
p115
S'arduino'
p116
ssS'name'
p117
S'Arduino Uno'
p118
sS'build'
p119
(dp120
S'core'
p121
S'arduino'
p122
sS'mcu'
p123
S'atmega328p'
p124
sS'f_cpu'
p125
S'16000000L'
p126
sS'variant'
p127
S'standard'
p128
ssaa(lp129
S'atmega328'
p130
a(dp131
S'bootloader'
p132
(dp133
S'extended_fuses'
p134
S'0x05'
p135
sS'high_fuses'
p136
S'0xDA'
p137
sS'low_fuses'
p138
S'0xFF'
p139
sS'lock_bits'
p140
S'0x0F'
p141
sS'file'
p142
S'ATmegaBOOT_168_atmega328.hex'
p143
sS'path'
p144
S'atmega'
p145
sS'unlock_bits'
p146
S'0x3F'
p147
ssS'upload'
p148
(dp149
S'speed'
p150
S'57600'
p151
sS'maximum_size'
p152
S'30720'
p153
sS'protocol'
p154
S'arduino'
p155
ssS'name'
p156
S'Arduino Duemilanove w/ ATmega328'
p157
sS'build'
p158
(dp159
S'core'
p160
S'arduino'
p161
sS'mcu'
p162
S'atmega328p'
p163
sS'f_cpu'
p164
S'16000000L'
p165
sS'variant'
p166
S'standard'
p167
ssaa(lp168
S'diecimila'
p169
a(dp170
S'bootloader'
p171
(dp172
S'extended_fuses'
p173
S'0x00'
p174
sS'high_fuses'
p175
S'0xdd'
p176
sS'low_fuses'
p177
S'0xff'
p178
sS'lock_bits'
p179
S'0x0F'
p180
sS'file'
p181
S'ATmegaBOOT_168_diecimila.hex'
p182
sS'path'
p183
S'atmega'
p184
sS'unlock_bits'
p185
S'0x3F'
p186
ssS'upload'
p187
(dp188
S'speed'
p189
S'19200'
p190
sS'maximum_size'
p191
S'14336'
p192
sS'protocol'
p193
S'arduino'
p194
ssS'name'
p195
S'Arduino Diecimila or Duemilanove w/ ATmega168'
p196
sS'build'
p197
(dp198
S'core'
p199
S'arduino'
p200
sS'mcu'
p201
S'atmega168'
p202
sS'f_cpu'
p203
S'16000000L'
p204
sS'variant'
p205
S'standard'
p206
ssaa(lp207
S'nano328'
p208
a(dp209
S'bootloader'
p210
(dp211
S'extended_fuses'
p212
S'0x05'
p213
sS'high_fuses'
p214
S'0xDA'
p215
sS'low_fuses'
p216
S'0xFF'
p217
sS'lock_bits'
p218
S'0x0F'
p219
sS'file'
p220
S'ATmegaBOOT_168_atmega328.hex'
p221
sS'path'
p222
S'atmega'
p223
sS'unlock_bits'
p224
S'0x3F'
p225
ssS'upload'
p226
(dp227
S'speed'
p228
S'57600'
p229
sS'maximum_size'
p230
S'30720'
p231
sS'protocol'
p232
S'arduino'
p233
ssS'name'
p234
S'Arduino Nano w/ ATmega328'
p235
sS'build'
p236
(dp237
S'core'
p238
S'arduino'
p239
sS'mcu'
p240
S'atmega328p'
p241
sS'f_cpu'
p242
S'16000000L'
p243
sS'variant'
p244
S'eightanaloginputs'
p245
ssaa(lp246
S'nano'
p247
a(dp248
S'bootloader'
p249
(dp250
S'extended_fuses'
p251
S'0x00'
p252
sS'high_fuses'
p253
S'0xdd'
p254
sS'low_fuses'
p255
S'0xff'
p256
sS'lock_bits'
p257
S'0x0F'
p258
sS'file'
p259
S'ATmegaBOOT_168_diecimila.hex'
p260
sS'path'
p261
S'atmega'
p262
sS'unlock_bits'
p263
S'0x3F'
p264
ssS'upload'
p265
(dp266
S'speed'
p267
S'19200'
p268
sS'maximum_size'
p269
S'14336'
p270
sS'protocol'
p271
S'arduino'
p272
ssS'name'
p273
S'Arduino Nano w/ ATmega168'
p274
sS'build'
p275
(dp276
S'core'
p277
S'arduino'
p278
sS'mcu'
p279
S'atmega168'
p280
sS'f_cpu'
p281
S'16000000L'
p282
sS'variant'
p283
S'eightanaloginputs'
p284
ssaa(lp285
S'mega2560'
p286
a(dp287
S'bootloader'
p288
(dp289
S'extended_fuses'
p290
S'0xFD'
p291
sS'high_fuses'
p292
S'0xD8'
p293
sS'low_fuses'
p294
S'0xFF'
p295
sS'lock_bits'
p296
S'0x0F'
p297
sS'file'
p298
S'stk500boot_v2_mega2560.hex'
p299
sS'path'
p300
S'stk500v2'
p301
sS'unlock_bits'
p302
S'0x3F'
p303
ssS'upload'
p304
(dp305
S'speed'
p306
S'115200'
p307
sS'maximum_size'
p308
S'258048'
p309
sS'protocol'
p310
S'stk500v2'
p311
ssS'name'
p312
S'Arduino Mega 2560 or Mega ADK'
p313
sS'build'
p314
(dp315
S'core'
p316
S'arduino'
p317
sS'mcu'
p318
S'atmega2560'
p319
sS'f_cpu'
p320
S'16000000L'
p321
sS'variant'
p322
S'mega'
p323
ssaa(lp324
S'mega'
p325
a(dp326
S'bootloader'
p327
(dp328
S'extended_fuses'
p329
S'0xF5'
p330
sS'high_fuses'
p331
S'0xDA'
p332
sS'low_fuses'
p333
S'0xFF'
p334
sS'lock_bits'
p335
S'0x0F'
p336
sS'file'
p337
S'ATmegaBOOT_168_atmega1280.hex'
p338
sS'path'
p339
S'atmega'
p340
sS'unlock_bits'
p341
S'0x3F'
p342
ssS'upload'
p343
(dp344
S'speed'
p345
S'57600'
p346
sS'maximum_size'
p347
S'126976'
p348
sS'protocol'
p349
S'arduino'
p350
ssS'name'
p351
S'Arduino Mega (ATmega1280)'
p352
sS'build'
p353
(dp354
S'core'
p355
S'arduino'
p356
sS'mcu'
p357
S'atmega1280'
p358
sS'f_cpu'
p359
S'16000000L'
p360
sS'variant'
p361
S'mega'
p362
ssaa(lp363
S'mini328'
p364
a(dp365
S'bootloader'
p366
(dp367
S'extended_fuses'
p368
S'0x05'
p369
sS'high_fuses'
p370
S'0xd8'
p371
sS'low_fuses'
p372
S'0xff'
p373
sS'lock_bits'
p374
S'0x0F'
p375
sS'file'
p376
S'optiboot_atmega328-Mini.hex'
p377
sS'path'
p378
S'optiboot'
p379
sS'unlock_bits'
p380
S'0x3F'
p381
ssS'upload'
p382
(dp383
S'speed'
p384
S'115200'
p385
sS'maximum_size'
p386
S'28672'
p387
sS'protocol'
p388
S'stk500'
p389
ssS'name'
p390
S'Arduino Mini w/ ATmega328'
p391
sS'build'
p392
(dp393
S'core'
p394
S'arduino'
p395
sS'mcu'
p396
S'atmega328p'
p397
sS'f_cpu'
p398
S'16000000L'
p399
sS'variant'
p400
S'eightanaloginputs'
p401
ssaa(lp402
S'mini'
p403
a(dp404
S'bootloader'
p405
(dp406
S'extended_fuses'
p407
S'0x00'
p408
sS'high_fuses'
p409
S'0xdd'
p410
sS'low_fuses'
p411
S'0xff'
p412
sS'lock_bits'
p413
S'0x0F'
p414
sS'file'
p415
S'ATmegaBOOT_168_ng.hex'
p416
sS'path'
p417
S'atmega'
p418
sS'unlock_bits'
p419
S'0x3F'
p420
ssS'upload'
p421
(dp422
S'speed'
p423
S'19200'
p424
sS'maximum_size'
p425
S'14336'
p426
sS'protocol'
p427
S'arduino'
p428
ssS'name'
p429
S'Arduino Mini w/ ATmega168'
p430
sS'build'
p431
(dp432
S'core'
p433
S'arduino'
p434
sS'mcu'
p435
S'atmega168'
p436
sS'f_cpu'
p437
S'16000000L'
p438
sS'variant'
p439
S'eightanaloginputs'
p440
ssaa(lp441
S'ethernet'
p442
a(dp443
S'bootloader'
p444
(dp445
S'extended_fuses'
p446
S'0x05'
p447
sS'high_fuses'
p448
S'0xde'
p449
sS'low_fuses'
p450
S'0xff'
p451
sS'lock_bits'
p452
S'0x0F'
p453
sS'file'
p454
S'optiboot_atmega328.hex'
p455
sS'path'
p456
S'optiboot'
p457
sS'unlock_bits'
p458
S'0x3F'
p459
ssS'upload'
p460
(dp461
S'speed'
p462
S'115200'
p463
sS'maximum_size'
p464
S'32256'
p465
sS'protocol'
p466
S'arduino'
p467
ssS'name'
p468
S'Arduino Ethernet'
p469
sS'build'
p470
(dp471
S'f_cpu'
p472
S'16000000L'
p473
sS'mcu'
p474
S'atmega328p'
p475
sS'variant'
p476
S'standard'
p477
sS'core'
p478
S'arduino'
p479
ssaa(lp480
S'fio'
p481
a(dp482
S'bootloader'
p483
(dp484
S'extended_fuses'
p485
S'0x05'
p486
sS'high_fuses'
p487
S'0xDA'
p488
sS'low_fuses'
p489
S'0xFF'
p490
sS'lock_bits'
p491
S'0x0F'
p492
sS'file'
p493
S'ATmegaBOOT_168_atmega328_pro_8MHz.hex'
p494
sS'path'
p495
S'arduino:atmega'
p496
sS'unlock_bits'
p497
S'0x3F'
p498
ssS'upload'
p499
(dp500
S'speed'
p501
S'57600'
p502
sS'maximum_size'
p503
S'30720'
p504
sS'protocol'
p505
S'arduino'
p506
ssS'name'
p507
S'Arduino Fio'
p508
sS'build'
p509
(dp510
S'core'
p511
S'arduino'
p512
sS'mcu'
p513
S'atmega328p'
p514
sS'f_cpu'
p515
S'8000000L'
p516
sS'variant'
p517
S'eightanaloginputs'
p518
ssaa(lp519
S'bt328'
p520
a(dp521
S'bootloader'
p522
(dp523
S'extended_fuses'
p524
S'0x05'
p525
sS'high_fuses'
p526
S'0xd8'
p527
sS'low_fuses'
p528
S'0xff'
p529
sS'lock_bits'
p530
S'0x0F'
p531
sS'file'
p532
S'ATmegaBOOT_168_atmega328_bt.hex'
p533
sS'path'
p534
S'bt'
p535
sS'unlock_bits'
p536
S'0x3F'
p537
ssS'upload'
p538
(dp539
S'speed'
p540
S'19200'
p541
sS'maximum_size'
p542
S'28672'
p543
sS'protocol'
p544
S'arduino'
p545
sS'disable_flushing'
p546
S'true'
p547
ssS'name'
p548
S'Arduino BT w/ ATmega328'
p549
sS'build'
p550
(dp551
S'core'
p552
S'arduino'
p553
sS'mcu'
p554
S'atmega328p'
p555
sS'f_cpu'
p556
S'16000000L'
p557
sS'variant'
p558
S'eightanaloginputs'
p559
ssaa(lp560
S'bt'
p561
a(dp562
S'bootloader'
p563
(dp564
S'extended_fuses'
p565
S'0x00'
p566
sS'high_fuses'
p567
S'0xdd'
p568
sS'low_fuses'
p569
S'0xff'
p570
sS'lock_bits'
p571
S'0x0F'
p572
sS'file'
p573
S'ATmegaBOOT_168.hex'
p574
sS'path'
p575
S'bt'
p576
sS'unlock_bits'
p577
S'0x3F'
p578
ssS'upload'
p579
(dp580
S'speed'
p581
S'19200'
p582
sS'maximum_size'
p583
S'14336'
p584
sS'protocol'
p585
S'arduino'
p586
sS'disable_flushing'
p587
S'true'
p588
ssS'name'
p589
S'Arduino BT w/ ATmega168'
p590
sS'build'
p591
(dp592
S'core'
p593
S'arduino'
p594
sS'mcu'
p595
S'atmega168'
p596
sS'f_cpu'
p597
S'16000000L'
p598
sS'variant'
p599
S'eightanaloginputs'
p600
ssaa(lp601
S'lilypad328'
p602
a(dp603
S'bootloader'
p604
(dp605
S'extended_fuses'
p606
S'0x05'
p607
sS'high_fuses'
p608
S'0xDA'
p609
sS'low_fuses'
p610
S'0xFF'
p611
sS'lock_bits'
p612
S'0x0F'
p613
sS'file'
p614
S'ATmegaBOOT_168_atmega328_pro_8MHz.hex'
p615
sS'path'
p616
S'atmega'
p617
sS'unlock_bits'
p618
S'0x3F'
p619
ssS'upload'
p620
(dp621
S'speed'
p622
S'57600'
p623
sS'maximum_size'
p624
S'30720'
p625
sS'protocol'
p626
S'arduino'
p627
ssS'name'
p628
S'LilyPad Arduino w/ ATmega328'
p629
sS'build'
p630
(dp631
S'core'
p632
S'arduino'
p633
sS'mcu'
p634
S'atmega328p'
p635
sS'f_cpu'
p636
S'8000000L'
p637
sS'variant'
p638
S'standard'
p639
ssaa(lp640
S'lilypad'
p641
a(dp642
S'bootloader'
p643
(dp644
S'extended_fuses'
p645
S'0x00'
p646
sS'high_fuses'
p647
S'0xdd'
p648
sS'low_fuses'
p649
S'0xe2'
p650
sS'lock_bits'
p651
S'0x0F'
p652
sS'file'
p653
S'LilyPadBOOT_168.hex'
p654
sS'path'
p655
S'lilypad'
p656
sS'unlock_bits'
p657
S'0x3F'
p658
ssS'upload'
p659
(dp660
S'speed'
p661
S'19200'
p662
sS'maximum_size'
p663
S'14336'
p664
sS'protocol'
p665
S'arduino'
p666
ssS'name'
p667
S'LilyPad Arduino w/ ATmega168'
p668
sS'build'
p669
(dp670
S'core'
p671
S'arduino'
p672
sS'mcu'
p673
S'atmega168'
p674
sS'f_cpu'
p675
S'8000000L'
p676
sS'variant'
p677
S'standard'
p678
ssaa(lp679
S'pro5v328'
p680
a(dp681
S'bootloader'
p682
(dp683
S'extended_fuses'
p684
S'0x05'
p685
sS'high_fuses'
p686
S'0xDA'
p687
sS'low_fuses'
p688
S'0xFF'
p689
sS'lock_bits'
p690
S'0x0F'
p691
sS'file'
p692
S'ATmegaBOOT_168_atmega328.hex'
p693
sS'path'
p694
S'atmega'
p695
sS'unlock_bits'
p696
S'0x3F'
p697
ssS'upload'
p698
(dp699
S'speed'
p700
S'57600'
p701
sS'maximum_size'
p702
S'30720'
p703
sS'protocol'
p704
S'arduino'
p705
ssS'name'
p706
S'Arduino Pro or Pro Mini (5V, 16 MHz) w/ ATmega328'
p707
sS'build'
p708
(dp709
S'core'
p710
S'arduino'
p711
sS'mcu'
p712
S'atmega328p'
p713
sS'f_cpu'
p714
S'16000000L'
p715
sS'variant'
p716
S'standard'
p717
ssaa(lp718
S'pro5v'
p719
a(dp720
S'bootloader'
p721
(dp722
S'extended_fuses'
p723
S'0x00'
p724
sS'high_fuses'
p725
S'0xdd'
p726
sS'low_fuses'
p727
S'0xff'
p728
sS'lock_bits'
p729
S'0x0F'
p730
sS'file'
p731
S'ATmegaBOOT_168_diecimila.hex'
p732
sS'path'
p733
S'atmega'
p734
sS'unlock_bits'
p735
S'0x3F'
p736
ssS'upload'
p737
(dp738
S'speed'
p739
S'19200'
p740
sS'maximum_size'
p741
S'14336'
p742
sS'protocol'
p743
S'arduino'
p744
ssS'name'
p745
S'Arduino Pro or Pro Mini (5V, 16 MHz) w/ ATmega168'
p746
sS'build'
p747
(dp748
S'core'
p749
S'arduino'
p750
sS'mcu'
p751
S'atmega168'
p752
sS'f_cpu'
p753
S'16000000L'
p754
sS'variant'
p755
S'standard'
p756
ssaa(lp757
S'pro328'
p758
a(dp759
S'bootloader'
p760
(dp761
S'extended_fuses'
p762
S'0x05'
p763
sS'high_fuses'
p764
S'0xDA'
p765
sS'low_fuses'
p766
S'0xFF'
p767
sS'lock_bits'
p768
S'0x0F'
p769
sS'file'
p770
S'ATmegaBOOT_168_atmega328_pro_8MHz.hex'
p771
sS'path'
p772
S'atmega'
p773
sS'unlock_bits'
p774
S'0x3F'
p775
ssS'upload'
p776
(dp777
S'speed'
p778
S'57600'
p779
sS'maximum_size'
p780
S'30720'
p781
sS'protocol'
p782
S'arduino'
p783
ssS'name'
p784
S'Arduino Pro or Pro Mini (3.3V, 8 MHz) w/ ATmega328'
p785
sS'build'
p786
(dp787
S'core'
p788
S'arduino'
p789
sS'mcu'
p790
S'atmega328p'
p791
sS'f_cpu'
p792
S'8000000L'
p793
sS'variant'
p794
S'standard'
p795
ssaa(lp796
S'pro'
p797
a(dp798
S'bootloader'
p799
(dp800
S'extended_fuses'
p801
S'0x00'
p802
sS'high_fuses'
p803
S'0xdd'
p804
sS'low_fuses'
p805
S'0xc6'
p806
sS'lock_bits'
p807
S'0x0F'
p808
sS'file'
p809
S'ATmegaBOOT_168_pro_8MHz.hex'
p810
sS'path'
p811
S'atmega'
p812
sS'unlock_bits'
p813
S'0x3F'
p814
ssS'upload'
p815
(dp816
S'speed'
p817
S'19200'
p818
sS'maximum_size'
p819
S'14336'
p820
sS'protocol'
p821
S'arduino'
p822
ssS'name'
p823
S'Arduino Pro or Pro Mini (3.3V, 8 MHz) w/ ATmega168'
p824
sS'build'
p825
(dp826
S'core'
p827
S'arduino'
p828
sS'mcu'
p829
S'atmega168'
p830
sS'f_cpu'
p831
S'8000000L'
p832
sS'variant'
p833
S'standard'
p834
ssaa(lp835
S'atmega168'
p836
a(dp837
S'bootloader'
p838
(dp839
S'extended_fuses'
p840
S'0x00'
p841
sS'high_fuses'
p842
S'0xdd'
p843
sS'low_fuses'
p844
S'0xff'
p845
sS'lock_bits'
p846
S'0x0F'
p847
sS'file'
p848
S'ATmegaBOOT_168_ng.hex'
p849
sS'path'
p850
S'atmega'
p851
sS'unlock_bits'
p852
S'0x3F'
p853
ssS'upload'
p854
(dp855
S'speed'
p856
S'19200'
p857
sS'maximum_size'
p858
S'14336'
p859
sS'protocol'
p860
S'arduino'
p861
ssS'name'
p862
S'Arduino NG or older w/ ATmega168'
p863
sS'build'
p864
(dp865
S'core'
p866
S'arduino'
p867
sS'mcu'
p868
S'atmega168'
p869
sS'f_cpu'
p870
S'16000000L'
p871
sS'variant'
p872
S'standard'
p873
ssaa(lp874
S'atmega8'
p875
a(dp876
S'bootloader'
p877
(dp878
S'high_fuses'
p879
S'0xca'
p880
sS'low_fuses'
p881
S'0xdf'
p882
sS'lock_bits'
p883
S'0x0F'
p884
sS'file'
p885
S'ATmegaBOOT.hex'
p886
sS'path'
p887
S'atmega8'
p888
sS'unlock_bits'
p889
S'0x3F'
p890
ssS'upload'
p891
(dp892
S'speed'
p893
S'19200'
p894
sS'maximum_size'
p895
S'7168'
p896
sS'protocol'
p897
S'arduino'
p898
ssS'name'
p899
S'Arduino NG or older w/ ATmega8'
p900
sS'build'
p901
(dp902
S'core'
p903
S'arduino'
p904
sS'mcu'
p905
S'atmega8'
p906
sS'f_cpu'
p907
S'16000000L'
p908
sS'variant'
p909
S'standard'
p910
ssaatp911
Rp912
(dp913
S'default'
p914
S'uno'
p915
sbtp916
a(S'cxx'
p917
S'/usr/bin/avr-g++'
p918
tp919
a.