(lp0
(S'elfflags'
p1
ccopy_reg
_reconstructor
p2
(cino.utils
SpaceList
p3
c__builtin__
list
p4
(lp5
S'-Os'
p6
aS'-Wl,--gc-sections'
p7
aS'-mmcu=atmega328p'
p8
atp9
Rp10
tp11
a(S'version.txt'
p12
S'/usr/share/arduino/lib/version.txt'
p13
tp14
a(S'used_libs'
p15
(lp16
S'/usr/share/arduino/hardware/arduino/cores/arduino'
p17
atp18
a(S'cc'
p19
S'/usr/bin/avr-gcc'
p20
tp21
a(S'build_dir'
p22
S'.build/uno'
p23
tp24
a(S'arduino_core_dir'
p25
g17
tp26
a(S'boards.txt'
p27
S'/usr/share/arduino/hardware/arduino/boards.txt'
p28
tp29
a(S'cxxflags'
p30
g2
(g3
g4
(lp31
S'-fno-exceptions'
p32
atp33
Rp34
tp35
a(S'arduino_variants_dir'
p36
S'/usr/share/arduino/hardware/arduino/variants'
p37
tp38
a(S'deps'
p39
g2
(g3
g4
(lp40
S'.build/uno/src/dependencies.d'
p41
aS'.build/uno/arduino/dependencies.d'
p42
atp43
Rp44
tp45
a(S'ar'
p46
S'/usr/bin/avr-ar'
p47
tp48
a(S'names'
p49
(dp50
S'cpp'
p51
S'%s.cpp'
p52
sS'obj'
p53
S'%s.o'
p54
sS'deps'
p55
S'%s.d'
p56
sS'lib'
p57
S'lib%s.a'
p58
stp59
a(S'cflags'
p60
g2
(g3
g4
(lp61
g8
aS'-ffunction-sections'
p62
aS'-fdata-sections'
p63
aS'-g'
p64
ag6
aS'-w'
p65
aS'-DF_CPU=16000000L'
p66
aS'-DARDUINO=100'
p67
aS'-I/usr/share/arduino/hardware/arduino/cores/arduino'
p68
aS'-I/usr/share/arduino/hardware/arduino/variants/standard'
p69
aS'-I/usr/share/arduino/hardware/arduino/cores/arduino'
p70
atp71
Rp72
tp73
a(S'arduino_libraries_dir'
p74
S'/usr/share/arduino/libraries'
p75
tp76
a(S'arduino_lib_version'
p77
g2
(cino.environment
Version
p78
c__builtin__
tuple
p79
(I1
I0
tp80
tp81
Rp82
tp83
a(S'objcopy'
p84
S'/usr/bin/avr-objcopy'
p85
tp86
a(S'board_models'
p87
cino.environment
BoardModels
p88
((lp89
(lp90
S'uno'
p91
a(dp92
S'bootloader'
p93
(dp94
S'extended_fuses'
p95
S'0x05'
p96
sS'high_fuses'
p97
S'0xde'
p98
sS'low_fuses'
p99
S'0xff'
p100
sS'lock_bits'
p101
S'0x0F'
p102
sS'file'
p103
S'optiboot_atmega328.hex'
p104
sS'path'
p105
S'optiboot'
p106
sS'unlock_bits'
p107
S'0x3F'
p108
ssS'build'
p109
(dp110
S'core'
p111
S'arduino'
p112
sS'mcu'
p113
S'atmega328p'
p114
sS'f_cpu'
p115
S'16000000L'
p116
sS'variant'
p117
S'standard'
p118
ssS'name'
p119
S'Arduino Uno'
p120
sS'upload'
p121
(dp122
S'speed'
p123
S'115200'
p124
sS'maximum_size'
p125
S'32256'
p126
sS'protocol'
p127
S'arduino'
p128
ssaa(lp129
S'atmega328'
p130
a(dp131
S'bootloader'
p132
(dp133
S'extended_fuses'
p134
S'0x05'
p135
sS'high_fuses'
p136
S'0xDA'
p137
sS'low_fuses'
p138
S'0xFF'
p139
sS'lock_bits'
p140
S'0x0F'
p141
sS'file'
p142
S'ATmegaBOOT_168_atmega328.hex'
p143
sS'path'
p144
S'atmega'
p145
sS'unlock_bits'
p146
S'0x3F'
p147
ssS'build'
p148
(dp149
S'core'
p150
S'arduino'
p151
sS'mcu'
p152
S'atmega328p'
p153
sS'f_cpu'
p154
S'16000000L'
p155
sS'variant'
p156
S'standard'
p157
ssS'name'
p158
S'Arduino Duemilanove w/ ATmega328'
p159
sS'upload'
p160
(dp161
S'speed'
p162
S'57600'
p163
sS'maximum_size'
p164
S'30720'
p165
sS'protocol'
p166
S'arduino'
p167
ssaa(lp168
S'diecimila'
p169
a(dp170
S'bootloader'
p171
(dp172
S'extended_fuses'
p173
S'0x00'
p174
sS'high_fuses'
p175
S'0xdd'
p176
sS'low_fuses'
p177
S'0xff'
p178
sS'lock_bits'
p179
S'0x0F'
p180
sS'file'
p181
S'ATmegaBOOT_168_diecimila.hex'
p182
sS'path'
p183
S'atmega'
p184
sS'unlock_bits'
p185
S'0x3F'
p186
ssS'build'
p187
(dp188
S'core'
p189
S'arduino'
p190
sS'mcu'
p191
S'atmega168'
p192
sS'f_cpu'
p193
S'16000000L'
p194
sS'variant'
p195
S'standard'
p196
ssS'name'
p197
S'Arduino Diecimila or Duemilanove w/ ATmega168'
p198
sS'upload'
p199
(dp200
S'speed'
p201
S'19200'
p202
sS'maximum_size'
p203
S'14336'
p204
sS'protocol'
p205
S'arduino'
p206
ssaa(lp207
S'nano328'
p208
a(dp209
S'bootloader'
p210
(dp211
S'extended_fuses'
p212
S'0x05'
p213
sS'high_fuses'
p214
S'0xDA'
p215
sS'low_fuses'
p216
S'0xFF'
p217
sS'lock_bits'
p218
S'0x0F'
p219
sS'file'
p220
S'ATmegaBOOT_168_atmega328.hex'
p221
sS'path'
p222
S'atmega'
p223
sS'unlock_bits'
p224
S'0x3F'
p225
ssS'build'
p226
(dp227
S'core'
p228
S'arduino'
p229
sS'mcu'
p230
S'atmega328p'
p231
sS'f_cpu'
p232
S'16000000L'
p233
sS'variant'
p234
S'eightanaloginputs'
p235
ssS'name'
p236
S'Arduino Nano w/ ATmega328'
p237
sS'upload'
p238
(dp239
S'speed'
p240
S'57600'
p241
sS'maximum_size'
p242
S'30720'
p243
sS'protocol'
p244
S'arduino'
p245
ssaa(lp246
S'nano'
p247
a(dp248
S'bootloader'
p249
(dp250
S'extended_fuses'
p251
S'0x00'
p252
sS'high_fuses'
p253
S'0xdd'
p254
sS'low_fuses'
p255
S'0xff'
p256
sS'lock_bits'
p257
S'0x0F'
p258
sS'file'
p259
S'ATmegaBOOT_168_diecimila.hex'
p260
sS'path'
p261
S'atmega'
p262
sS'unlock_bits'
p263
S'0x3F'
p264
ssS'build'
p265
(dp266
S'core'
p267
S'arduino'
p268
sS'mcu'
p269
S'atmega168'
p270
sS'f_cpu'
p271
S'16000000L'
p272
sS'variant'
p273
S'eightanaloginputs'
p274
ssS'name'
p275
S'Arduino Nano w/ ATmega168'
p276
sS'upload'
p277
(dp278
S'speed'
p279
S'19200'
p280
sS'maximum_size'
p281
S'14336'
p282
sS'protocol'
p283
S'arduino'
p284
ssaa(lp285
S'mega2560'
p286
a(dp287
S'bootloader'
p288
(dp289
S'extended_fuses'
p290
S'0xFD'
p291
sS'high_fuses'
p292
S'0xD8'
p293
sS'low_fuses'
p294
S'0xFF'
p295
sS'lock_bits'
p296
S'0x0F'
p297
sS'file'
p298
S'stk500boot_v2_mega2560.hex'
p299
sS'path'
p300
S'stk500v2'
p301
sS'unlock_bits'
p302
S'0x3F'
p303
ssS'build'
p304
(dp305
S'core'
p306
S'arduino'
p307
sS'mcu'
p308
S'atmega2560'
p309
sS'f_cpu'
p310
S'16000000L'
p311
sS'variant'
p312
S'mega'
p313
ssS'name'
p314
S'Arduino Mega 2560 or Mega ADK'
p315
sS'upload'
p316
(dp317
S'speed'
p318
S'115200'
p319
sS'maximum_size'
p320
S'258048'
p321
sS'protocol'
p322
S'stk500v2'
p323
ssaa(lp324
S'mega'
p325
a(dp326
S'bootloader'
p327
(dp328
S'extended_fuses'
p329
S'0xF5'
p330
sS'high_fuses'
p331
S'0xDA'
p332
sS'low_fuses'
p333
S'0xFF'
p334
sS'lock_bits'
p335
S'0x0F'
p336
sS'file'
p337
S'ATmegaBOOT_168_atmega1280.hex'
p338
sS'path'
p339
S'atmega'
p340
sS'unlock_bits'
p341
S'0x3F'
p342
ssS'build'
p343
(dp344
S'core'
p345
S'arduino'
p346
sS'mcu'
p347
S'atmega1280'
p348
sS'f_cpu'
p349
S'16000000L'
p350
sS'variant'
p351
S'mega'
p352
ssS'name'
p353
S'Arduino Mega (ATmega1280)'
p354
sS'upload'
p355
(dp356
S'speed'
p357
S'57600'
p358
sS'maximum_size'
p359
S'126976'
p360
sS'protocol'
p361
S'arduino'
p362
ssaa(lp363
S'mini328'
p364
a(dp365
S'bootloader'
p366
(dp367
S'extended_fuses'
p368
S'0x05'
p369
sS'high_fuses'
p370
S'0xd8'
p371
sS'low_fuses'
p372
S'0xff'
p373
sS'lock_bits'
p374
S'0x0F'
p375
sS'file'
p376
S'optiboot_atmega328-Mini.hex'
p377
sS'path'
p378
S'optiboot'
p379
sS'unlock_bits'
p380
S'0x3F'
p381
ssS'build'
p382
(dp383
S'core'
p384
S'arduino'
p385
sS'mcu'
p386
S'atmega328p'
p387
sS'f_cpu'
p388
S'16000000L'
p389
sS'variant'
p390
S'eightanaloginputs'
p391
ssS'name'
p392
S'Arduino Mini w/ ATmega328'
p393
sS'upload'
p394
(dp395
S'speed'
p396
S'115200'
p397
sS'maximum_size'
p398
S'28672'
p399
sS'protocol'
p400
S'stk500'
p401
ssaa(lp402
S'mini'
p403
a(dp404
S'bootloader'
p405
(dp406
S'extended_fuses'
p407
S'0x00'
p408
sS'high_fuses'
p409
S'0xdd'
p410
sS'low_fuses'
p411
S'0xff'
p412
sS'lock_bits'
p413
S'0x0F'
p414
sS'file'
p415
S'ATmegaBOOT_168_ng.hex'
p416
sS'path'
p417
S'atmega'
p418
sS'unlock_bits'
p419
S'0x3F'
p420
ssS'build'
p421
(dp422
S'core'
p423
S'arduino'
p424
sS'mcu'
p425
S'atmega168'
p426
sS'f_cpu'
p427
S'16000000L'
p428
sS'variant'
p429
S'eightanaloginputs'
p430
ssS'name'
p431
S'Arduino Mini w/ ATmega168'
p432
sS'upload'
p433
(dp434
S'speed'
p435
S'19200'
p436
sS'maximum_size'
p437
S'14336'
p438
sS'protocol'
p439
S'arduino'
p440
ssaa(lp441
S'ethernet'
p442
a(dp443
S'bootloader'
p444
(dp445
S'extended_fuses'
p446
S'0x05'
p447
sS'high_fuses'
p448
S'0xde'
p449
sS'low_fuses'
p450
S'0xff'
p451
sS'lock_bits'
p452
S'0x0F'
p453
sS'file'
p454
S'optiboot_atmega328.hex'
p455
sS'path'
p456
S'optiboot'
p457
sS'unlock_bits'
p458
S'0x3F'
p459
ssS'build'
p460
(dp461
S'f_cpu'
p462
S'16000000L'
p463
sS'mcu'
p464
S'atmega328p'
p465
sS'variant'
p466
S'standard'
p467
sS'core'
p468
S'arduino'
p469
ssS'name'
p470
S'Arduino Ethernet'
p471
sS'upload'
p472
(dp473
S'speed'
p474
S'115200'
p475
sS'maximum_size'
p476
S'32256'
p477
sS'protocol'
p478
S'arduino'
p479
ssaa(lp480
S'fio'
p481
a(dp482
S'bootloader'
p483
(dp484
S'extended_fuses'
p485
S'0x05'
p486
sS'high_fuses'
p487
S'0xDA'
p488
sS'low_fuses'
p489
S'0xFF'
p490
sS'lock_bits'
p491
S'0x0F'
p492
sS'file'
p493
S'ATmegaBOOT_168_atmega328_pro_8MHz.hex'
p494
sS'path'
p495
S'arduino:atmega'
p496
sS'unlock_bits'
p497
S'0x3F'
p498
ssS'build'
p499
(dp500
S'core'
p501
S'arduino'
p502
sS'mcu'
p503
S'atmega328p'
p504
sS'f_cpu'
p505
S'8000000L'
p506
sS'variant'
p507
S'eightanaloginputs'
p508
ssS'name'
p509
S'Arduino Fio'
p510
sS'upload'
p511
(dp512
S'speed'
p513
S'57600'
p514
sS'maximum_size'
p515
S'30720'
p516
sS'protocol'
p517
S'arduino'
p518
ssaa(lp519
S'bt328'
p520
a(dp521
S'bootloader'
p522
(dp523
S'extended_fuses'
p524
S'0x05'
p525
sS'high_fuses'
p526
S'0xd8'
p527
sS'low_fuses'
p528
S'0xff'
p529
sS'lock_bits'
p530
S'0x0F'
p531
sS'file'
p532
S'ATmegaBOOT_168_atmega328_bt.hex'
p533
sS'path'
p534
S'bt'
p535
sS'unlock_bits'
p536
S'0x3F'
p537
ssS'build'
p538
(dp539
S'core'
p540
S'arduino'
p541
sS'mcu'
p542
S'atmega328p'
p543
sS'f_cpu'
p544
S'16000000L'
p545
sS'variant'
p546
S'eightanaloginputs'
p547
ssS'name'
p548
S'Arduino BT w/ ATmega328'
p549
sS'upload'
p550
(dp551
S'speed'
p552
S'19200'
p553
sS'maximum_size'
p554
S'28672'
p555
sS'protocol'
p556
S'arduino'
p557
sS'disable_flushing'
p558
S'true'
p559
ssaa(lp560
S'bt'
p561
a(dp562
S'bootloader'
p563
(dp564
S'extended_fuses'
p565
S'0x00'
p566
sS'high_fuses'
p567
S'0xdd'
p568
sS'low_fuses'
p569
S'0xff'
p570
sS'lock_bits'
p571
S'0x0F'
p572
sS'file'
p573
S'ATmegaBOOT_168.hex'
p574
sS'path'
p575
S'bt'
p576
sS'unlock_bits'
p577
S'0x3F'
p578
ssS'build'
p579
(dp580
S'core'
p581
S'arduino'
p582
sS'mcu'
p583
S'atmega168'
p584
sS'f_cpu'
p585
S'16000000L'
p586
sS'variant'
p587
S'eightanaloginputs'
p588
ssS'name'
p589
S'Arduino BT w/ ATmega168'
p590
sS'upload'
p591
(dp592
S'speed'
p593
S'19200'
p594
sS'maximum_size'
p595
S'14336'
p596
sS'protocol'
p597
S'arduino'
p598
sS'disable_flushing'
p599
S'true'
p600
ssaa(lp601
S'lilypad328'
p602
a(dp603
S'bootloader'
p604
(dp605
S'extended_fuses'
p606
S'0x05'
p607
sS'high_fuses'
p608
S'0xDA'
p609
sS'low_fuses'
p610
S'0xFF'
p611
sS'lock_bits'
p612
S'0x0F'
p613
sS'file'
p614
S'ATmegaBOOT_168_atmega328_pro_8MHz.hex'
p615
sS'path'
p616
S'atmega'
p617
sS'unlock_bits'
p618
S'0x3F'
p619
ssS'build'
p620
(dp621
S'core'
p622
S'arduino'
p623
sS'mcu'
p624
S'atmega328p'
p625
sS'f_cpu'
p626
S'8000000L'
p627
sS'variant'
p628
S'standard'
p629
ssS'name'
p630
S'LilyPad Arduino w/ ATmega328'
p631
sS'upload'
p632
(dp633
S'speed'
p634
S'57600'
p635
sS'maximum_size'
p636
S'30720'
p637
sS'protocol'
p638
S'arduino'
p639
ssaa(lp640
S'lilypad'
p641
a(dp642
S'bootloader'
p643
(dp644
S'extended_fuses'
p645
S'0x00'
p646
sS'high_fuses'
p647
S'0xdd'
p648
sS'low_fuses'
p649
S'0xe2'
p650
sS'lock_bits'
p651
S'0x0F'
p652
sS'file'
p653
S'LilyPadBOOT_168.hex'
p654
sS'path'
p655
S'lilypad'
p656
sS'unlock_bits'
p657
S'0x3F'
p658
ssS'build'
p659
(dp660
S'core'
p661
S'arduino'
p662
sS'mcu'
p663
S'atmega168'
p664
sS'f_cpu'
p665
S'8000000L'
p666
sS'variant'
p667
S'standard'
p668
ssS'name'
p669
S'LilyPad Arduino w/ ATmega168'
p670
sS'upload'
p671
(dp672
S'speed'
p673
S'19200'
p674
sS'maximum_size'
p675
S'14336'
p676
sS'protocol'
p677
S'arduino'
p678
ssaa(lp679
S'pro5v328'
p680
a(dp681
S'bootloader'
p682
(dp683
S'extended_fuses'
p684
S'0x05'
p685
sS'high_fuses'
p686
S'0xDA'
p687
sS'low_fuses'
p688
S'0xFF'
p689
sS'lock_bits'
p690
S'0x0F'
p691
sS'file'
p692
S'ATmegaBOOT_168_atmega328.hex'
p693
sS'path'
p694
S'atmega'
p695
sS'unlock_bits'
p696
S'0x3F'
p697
ssS'build'
p698
(dp699
S'core'
p700
S'arduino'
p701
sS'mcu'
p702
S'atmega328p'
p703
sS'f_cpu'
p704
S'16000000L'
p705
sS'variant'
p706
S'standard'
p707
ssS'name'
p708
S'Arduino Pro or Pro Mini (5V, 16 MHz) w/ ATmega328'
p709
sS'upload'
p710
(dp711
S'speed'
p712
S'57600'
p713
sS'maximum_size'
p714
S'30720'
p715
sS'protocol'
p716
S'arduino'
p717
ssaa(lp718
S'pro5v'
p719
a(dp720
S'bootloader'
p721
(dp722
S'extended_fuses'
p723
S'0x00'
p724
sS'high_fuses'
p725
S'0xdd'
p726
sS'low_fuses'
p727
S'0xff'
p728
sS'lock_bits'
p729
S'0x0F'
p730
sS'file'
p731
S'ATmegaBOOT_168_diecimila.hex'
p732
sS'path'
p733
S'atmega'
p734
sS'unlock_bits'
p735
S'0x3F'
p736
ssS'build'
p737
(dp738
S'core'
p739
S'arduino'
p740
sS'mcu'
p741
S'atmega168'
p742
sS'f_cpu'
p743
S'16000000L'
p744
sS'variant'
p745
S'standard'
p746
ssS'name'
p747
S'Arduino Pro or Pro Mini (5V, 16 MHz) w/ ATmega168'
p748
sS'upload'
p749
(dp750
S'speed'
p751
S'19200'
p752
sS'maximum_size'
p753
S'14336'
p754
sS'protocol'
p755
S'arduino'
p756
ssaa(lp757
S'pro328'
p758
a(dp759
S'bootloader'
p760
(dp761
S'extended_fuses'
p762
S'0x05'
p763
sS'high_fuses'
p764
S'0xDA'
p765
sS'low_fuses'
p766
S'0xFF'
p767
sS'lock_bits'
p768
S'0x0F'
p769
sS'file'
p770
S'ATmegaBOOT_168_atmega328_pro_8MHz.hex'
p771
sS'path'
p772
S'atmega'
p773
sS'unlock_bits'
p774
S'0x3F'
p775
ssS'build'
p776
(dp777
S'core'
p778
S'arduino'
p779
sS'mcu'
p780
S'atmega328p'
p781
sS'f_cpu'
p782
S'8000000L'
p783
sS'variant'
p784
S'standard'
p785
ssS'name'
p786
S'Arduino Pro or Pro Mini (3.3V, 8 MHz) w/ ATmega328'
p787
sS'upload'
p788
(dp789
S'speed'
p790
S'57600'
p791
sS'maximum_size'
p792
S'30720'
p793
sS'protocol'
p794
S'arduino'
p795
ssaa(lp796
S'pro'
p797
a(dp798
S'bootloader'
p799
(dp800
S'extended_fuses'
p801
S'0x00'
p802
sS'high_fuses'
p803
S'0xdd'
p804
sS'low_fuses'
p805
S'0xc6'
p806
sS'lock_bits'
p807
S'0x0F'
p808
sS'file'
p809
S'ATmegaBOOT_168_pro_8MHz.hex'
p810
sS'path'
p811
S'atmega'
p812
sS'unlock_bits'
p813
S'0x3F'
p814
ssS'build'
p815
(dp816
S'core'
p817
S'arduino'
p818
sS'mcu'
p819
S'atmega168'
p820
sS'f_cpu'
p821
S'8000000L'
p822
sS'variant'
p823
S'standard'
p824
ssS'name'
p825
S'Arduino Pro or Pro Mini (3.3V, 8 MHz) w/ ATmega168'
p826
sS'upload'
p827
(dp828
S'speed'
p829
S'19200'
p830
sS'maximum_size'
p831
S'14336'
p832
sS'protocol'
p833
S'arduino'
p834
ssaa(lp835
S'atmega168'
p836
a(dp837
S'bootloader'
p838
(dp839
S'extended_fuses'
p840
S'0x00'
p841
sS'high_fuses'
p842
S'0xdd'
p843
sS'low_fuses'
p844
S'0xff'
p845
sS'lock_bits'
p846
S'0x0F'
p847
sS'file'
p848
S'ATmegaBOOT_168_ng.hex'
p849
sS'path'
p850
S'atmega'
p851
sS'unlock_bits'
p852
S'0x3F'
p853
ssS'build'
p854
(dp855
S'core'
p856
S'arduino'
p857
sS'mcu'
p858
S'atmega168'
p859
sS'f_cpu'
p860
S'16000000L'
p861
sS'variant'
p862
S'standard'
p863
ssS'name'
p864
S'Arduino NG or older w/ ATmega168'
p865
sS'upload'
p866
(dp867
S'speed'
p868
S'19200'
p869
sS'maximum_size'
p870
S'14336'
p871
sS'protocol'
p872
S'arduino'
p873
ssaa(lp874
S'atmega8'
p875
a(dp876
S'bootloader'
p877
(dp878
S'high_fuses'
p879
S'0xca'
p880
sS'low_fuses'
p881
S'0xdf'
p882
sS'lock_bits'
p883
S'0x0F'
p884
sS'file'
p885
S'ATmegaBOOT.hex'
p886
sS'path'
p887
S'atmega8'
p888
sS'unlock_bits'
p889
S'0x3F'
p890
ssS'build'
p891
(dp892
S'core'
p893
S'arduino'
p894
sS'mcu'
p895
S'atmega8'
p896
sS'f_cpu'
p897
S'16000000L'
p898
sS'variant'
p899
S'standard'
p900
ssS'name'
p901
S'Arduino NG or older w/ ATmega8'
p902
sS'upload'
p903
(dp904
S'speed'
p905
S'19200'
p906
sS'maximum_size'
p907
S'7168'
p908
sS'protocol'
p909
S'arduino'
p910
ssaatp911
Rp912
(dp913
S'default'
p914
S'uno'
p915
sbtp916
a(S'cxx'
p917
S'/usr/bin/avr-g++'
p918
tp919
a.