(lp0
(S'elfflags'
p1
ccopy_reg
_reconstructor
p2
(cino.utils
SpaceList
p3
c__builtin__
list
p4
(lp5
S'-Os'
p6
aS'-Wl,--gc-sections'
p7
aS'-mmcu=atmega328p'
p8
atp9
Rp10
tp11
a(S'version.txt'
p12
S'/usr/share/arduino/lib/version.txt'
p13
tp14
a(S'used_libs'
p15
(lp16
S'/usr/share/arduino/hardware/arduino/cores/arduino'
p17
atp18
a(S'cc'
p19
S'/usr/bin/avr-gcc'
p20
tp21
a(S'cflags'
p22
g2
(g3
g4
(lp23
g8
aS'-ffunction-sections'
p24
aS'-fdata-sections'
p25
aS'-g'
p26
ag6
aS'-w'
p27
aS'-DF_CPU=16000000L'
p28
aS'-DARDUINO=100'
p29
aS'-I/usr/share/arduino/hardware/arduino/cores/arduino'
p30
aS'-I/usr/share/arduino/hardware/arduino/variants/standard'
p31
aS'-I/usr/share/arduino/hardware/arduino/cores/arduino'
p32
atp33
Rp34
tp35
a(S'build_dir'
p36
S'.build/uno'
p37
tp38
a(S'arduino_core_dir'
p39
g17
tp40
a(S'boards.txt'
p41
S'/usr/share/arduino/hardware/arduino/boards.txt'
p42
tp43
a(S'cxxflags'
p44
g2
(g3
g4
(lp45
S'-fno-exceptions'
p46
atp47
Rp48
tp49
a(S'arduino_variants_dir'
p50
S'/usr/share/arduino/hardware/arduino/variants'
p51
tp52
a(S'ar'
p53
S'/usr/bin/avr-ar'
p54
tp55
a(S'names'
p56
(dp57
S'cpp'
p58
S'%s.cpp'
p59
sS'obj'
p60
S'%s.o'
p61
sS'deps'
p62
S'%s.d'
p63
sS'lib'
p64
S'lib%s.a'
p65
stp66
a(S'deps'
p67
g2
(g3
g4
(lp68
S'.build/uno/src/dependencies.d'
p69
aS'.build/uno/arduino/dependencies.d'
p70
atp71
Rp72
tp73
a(S'arduino_libraries_dir'
p74
S'/usr/share/arduino/libraries'
p75
tp76
a(S'arduino_lib_version'
p77
g2
(cino.environment
Version
p78
c__builtin__
tuple
p79
(I1
I0
tp80
tp81
Rp82
tp83
a(S'objcopy'
p84
S'/usr/bin/avr-objcopy'
p85
tp86
a(S'board_models'
p87
cino.environment
BoardModels
p88
((lp89
(lp90
S'uno'
p91
a(dp92
S'bootloader'
p93
(dp94
S'extended_fuses'
p95
S'0x05'
p96
sS'high_fuses'
p97
S'0xde'
p98
sS'low_fuses'
p99
S'0xff'
p100
sS'lock_bits'
p101
S'0x0F'
p102
sS'file'
p103
S'optiboot_atmega328.hex'
p104
sS'path'
p105
S'optiboot'
p106
sS'unlock_bits'
p107
S'0x3F'
p108
ssS'upload'
p109
(dp110
S'protocol'
p111
S'arduino'
p112
sS'maximum_size'
p113
S'32256'
p114
sS'speed'
p115
S'115200'
p116
ssS'build'
p117
(dp118
S'core'
p119
S'arduino'
p120
sS'mcu'
p121
S'atmega328p'
p122
sS'f_cpu'
p123
S'16000000L'
p124
sS'variant'
p125
S'standard'
p126
ssS'name'
p127
S'Arduino Uno'
p128
saa(lp129
S'atmega328'
p130
a(dp131
S'bootloader'
p132
(dp133
S'extended_fuses'
p134
S'0x05'
p135
sS'high_fuses'
p136
S'0xDA'
p137
sS'low_fuses'
p138
S'0xFF'
p139
sS'lock_bits'
p140
S'0x0F'
p141
sS'file'
p142
S'ATmegaBOOT_168_atmega328.hex'
p143
sS'path'
p144
S'atmega'
p145
sS'unlock_bits'
p146
S'0x3F'
p147
ssS'upload'
p148
(dp149
S'protocol'
p150
S'arduino'
p151
sS'maximum_size'
p152
S'30720'
p153
sS'speed'
p154
S'57600'
p155
ssS'build'
p156
(dp157
S'core'
p158
S'arduino'
p159
sS'mcu'
p160
S'atmega328p'
p161
sS'f_cpu'
p162
S'16000000L'
p163
sS'variant'
p164
S'standard'
p165
ssS'name'
p166
S'Arduino Duemilanove w/ ATmega328'
p167
saa(lp168
S'diecimila'
p169
a(dp170
S'bootloader'
p171
(dp172
S'extended_fuses'
p173
S'0x00'
p174
sS'high_fuses'
p175
S'0xdd'
p176
sS'low_fuses'
p177
S'0xff'
p178
sS'lock_bits'
p179
S'0x0F'
p180
sS'file'
p181
S'ATmegaBOOT_168_diecimila.hex'
p182
sS'path'
p183
S'atmega'
p184
sS'unlock_bits'
p185
S'0x3F'
p186
ssS'upload'
p187
(dp188
S'protocol'
p189
S'arduino'
p190
sS'maximum_size'
p191
S'14336'
p192
sS'speed'
p193
S'19200'
p194
ssS'build'
p195
(dp196
S'core'
p197
S'arduino'
p198
sS'mcu'
p199
S'atmega168'
p200
sS'f_cpu'
p201
S'16000000L'
p202
sS'variant'
p203
S'standard'
p204
ssS'name'
p205
S'Arduino Diecimila or Duemilanove w/ ATmega168'
p206
saa(lp207
S'nano328'
p208
a(dp209
S'bootloader'
p210
(dp211
S'extended_fuses'
p212
S'0x05'
p213
sS'high_fuses'
p214
S'0xDA'
p215
sS'low_fuses'
p216
S'0xFF'
p217
sS'lock_bits'
p218
S'0x0F'
p219
sS'file'
p220
S'ATmegaBOOT_168_atmega328.hex'
p221
sS'path'
p222
S'atmega'
p223
sS'unlock_bits'
p224
S'0x3F'
p225
ssS'upload'
p226
(dp227
S'protocol'
p228
S'arduino'
p229
sS'maximum_size'
p230
S'30720'
p231
sS'speed'
p232
S'57600'
p233
ssS'build'
p234
(dp235
S'core'
p236
S'arduino'
p237
sS'mcu'
p238
S'atmega328p'
p239
sS'f_cpu'
p240
S'16000000L'
p241
sS'variant'
p242
S'eightanaloginputs'
p243
ssS'name'
p244
S'Arduino Nano w/ ATmega328'
p245
saa(lp246
S'nano'
p247
a(dp248
S'bootloader'
p249
(dp250
S'extended_fuses'
p251
S'0x00'
p252
sS'high_fuses'
p253
S'0xdd'
p254
sS'low_fuses'
p255
S'0xff'
p256
sS'lock_bits'
p257
S'0x0F'
p258
sS'file'
p259
S'ATmegaBOOT_168_diecimila.hex'
p260
sS'path'
p261
S'atmega'
p262
sS'unlock_bits'
p263
S'0x3F'
p264
ssS'upload'
p265
(dp266
S'protocol'
p267
S'arduino'
p268
sS'maximum_size'
p269
S'14336'
p270
sS'speed'
p271
S'19200'
p272
ssS'build'
p273
(dp274
S'core'
p275
S'arduino'
p276
sS'mcu'
p277
S'atmega168'
p278
sS'f_cpu'
p279
S'16000000L'
p280
sS'variant'
p281
S'eightanaloginputs'
p282
ssS'name'
p283
S'Arduino Nano w/ ATmega168'
p284
saa(lp285
S'mega2560'
p286
a(dp287
S'bootloader'
p288
(dp289
S'extended_fuses'
p290
S'0xFD'
p291
sS'high_fuses'
p292
S'0xD8'
p293
sS'low_fuses'
p294
S'0xFF'
p295
sS'lock_bits'
p296
S'0x0F'
p297
sS'file'
p298
S'stk500boot_v2_mega2560.hex'
p299
sS'path'
p300
S'stk500v2'
p301
sS'unlock_bits'
p302
S'0x3F'
p303
ssS'upload'
p304
(dp305
S'protocol'
p306
S'stk500v2'
p307
sS'maximum_size'
p308
S'258048'
p309
sS'speed'
p310
S'115200'
p311
ssS'build'
p312
(dp313
S'core'
p314
S'arduino'
p315
sS'mcu'
p316
S'atmega2560'
p317
sS'f_cpu'
p318
S'16000000L'
p319
sS'variant'
p320
S'mega'
p321
ssS'name'
p322
S'Arduino Mega 2560 or Mega ADK'
p323
saa(lp324
S'mega'
p325
a(dp326
S'bootloader'
p327
(dp328
S'extended_fuses'
p329
S'0xF5'
p330
sS'high_fuses'
p331
S'0xDA'
p332
sS'low_fuses'
p333
S'0xFF'
p334
sS'lock_bits'
p335
S'0x0F'
p336
sS'file'
p337
S'ATmegaBOOT_168_atmega1280.hex'
p338
sS'path'
p339
S'atmega'
p340
sS'unlock_bits'
p341
S'0x3F'
p342
ssS'upload'
p343
(dp344
S'protocol'
p345
S'arduino'
p346
sS'maximum_size'
p347
S'126976'
p348
sS'speed'
p349
S'57600'
p350
ssS'build'
p351
(dp352
S'core'
p353
S'arduino'
p354
sS'mcu'
p355
S'atmega1280'
p356
sS'f_cpu'
p357
S'16000000L'
p358
sS'variant'
p359
S'mega'
p360
ssS'name'
p361
S'Arduino Mega (ATmega1280)'
p362
saa(lp363
S'mini328'
p364
a(dp365
S'bootloader'
p366
(dp367
S'extended_fuses'
p368
S'0x05'
p369
sS'high_fuses'
p370
S'0xd8'
p371
sS'low_fuses'
p372
S'0xff'
p373
sS'lock_bits'
p374
S'0x0F'
p375
sS'file'
p376
S'optiboot_atmega328-Mini.hex'
p377
sS'path'
p378
S'optiboot'
p379
sS'unlock_bits'
p380
S'0x3F'
p381
ssS'upload'
p382
(dp383
S'protocol'
p384
S'stk500'
p385
sS'maximum_size'
p386
S'28672'
p387
sS'speed'
p388
S'115200'
p389
ssS'build'
p390
(dp391
S'core'
p392
S'arduino'
p393
sS'mcu'
p394
S'atmega328p'
p395
sS'f_cpu'
p396
S'16000000L'
p397
sS'variant'
p398
S'eightanaloginputs'
p399
ssS'name'
p400
S'Arduino Mini w/ ATmega328'
p401
saa(lp402
S'mini'
p403
a(dp404
S'bootloader'
p405
(dp406
S'extended_fuses'
p407
S'0x00'
p408
sS'high_fuses'
p409
S'0xdd'
p410
sS'low_fuses'
p411
S'0xff'
p412
sS'lock_bits'
p413
S'0x0F'
p414
sS'file'
p415
S'ATmegaBOOT_168_ng.hex'
p416
sS'path'
p417
S'atmega'
p418
sS'unlock_bits'
p419
S'0x3F'
p420
ssS'upload'
p421
(dp422
S'protocol'
p423
S'arduino'
p424
sS'maximum_size'
p425
S'14336'
p426
sS'speed'
p427
S'19200'
p428
ssS'build'
p429
(dp430
S'core'
p431
S'arduino'
p432
sS'mcu'
p433
S'atmega168'
p434
sS'f_cpu'
p435
S'16000000L'
p436
sS'variant'
p437
S'eightanaloginputs'
p438
ssS'name'
p439
S'Arduino Mini w/ ATmega168'
p440
saa(lp441
S'ethernet'
p442
a(dp443
S'bootloader'
p444
(dp445
S'extended_fuses'
p446
S'0x05'
p447
sS'high_fuses'
p448
S'0xde'
p449
sS'low_fuses'
p450
S'0xff'
p451
sS'lock_bits'
p452
S'0x0F'
p453
sS'file'
p454
S'optiboot_atmega328.hex'
p455
sS'path'
p456
S'optiboot'
p457
sS'unlock_bits'
p458
S'0x3F'
p459
ssS'upload'
p460
(dp461
S'protocol'
p462
S'arduino'
p463
sS'maximum_size'
p464
S'32256'
p465
sS'speed'
p466
S'115200'
p467
ssS'build'
p468
(dp469
S'variant'
p470
S'standard'
p471
sS'mcu'
p472
S'atmega328p'
p473
sS'f_cpu'
p474
S'16000000L'
p475
sS'core'
p476
S'arduino'
p477
ssS'name'
p478
S'Arduino Ethernet'
p479
saa(lp480
S'fio'
p481
a(dp482
S'bootloader'
p483
(dp484
S'extended_fuses'
p485
S'0x05'
p486
sS'high_fuses'
p487
S'0xDA'
p488
sS'low_fuses'
p489
S'0xFF'
p490
sS'lock_bits'
p491
S'0x0F'
p492
sS'file'
p493
S'ATmegaBOOT_168_atmega328_pro_8MHz.hex'
p494
sS'path'
p495
S'arduino:atmega'
p496
sS'unlock_bits'
p497
S'0x3F'
p498
ssS'upload'
p499
(dp500
S'protocol'
p501
S'arduino'
p502
sS'maximum_size'
p503
S'30720'
p504
sS'speed'
p505
S'57600'
p506
ssS'build'
p507
(dp508
S'core'
p509
S'arduino'
p510
sS'mcu'
p511
S'atmega328p'
p512
sS'f_cpu'
p513
S'8000000L'
p514
sS'variant'
p515
S'eightanaloginputs'
p516
ssS'name'
p517
S'Arduino Fio'
p518
saa(lp519
S'bt328'
p520
a(dp521
S'bootloader'
p522
(dp523
S'extended_fuses'
p524
S'0x05'
p525
sS'high_fuses'
p526
S'0xd8'
p527
sS'low_fuses'
p528
S'0xff'
p529
sS'lock_bits'
p530
S'0x0F'
p531
sS'file'
p532
S'ATmegaBOOT_168_atmega328_bt.hex'
p533
sS'path'
p534
S'bt'
p535
sS'unlock_bits'
p536
S'0x3F'
p537
ssS'upload'
p538
(dp539
S'protocol'
p540
S'arduino'
p541
sS'maximum_size'
p542
S'28672'
p543
sS'speed'
p544
S'19200'
p545
sS'disable_flushing'
p546
S'true'
p547
ssS'build'
p548
(dp549
S'core'
p550
S'arduino'
p551
sS'mcu'
p552
S'atmega328p'
p553
sS'f_cpu'
p554
S'16000000L'
p555
sS'variant'
p556
S'eightanaloginputs'
p557
ssS'name'
p558
S'Arduino BT w/ ATmega328'
p559
saa(lp560
S'bt'
p561
a(dp562
S'bootloader'
p563
(dp564
S'extended_fuses'
p565
S'0x00'
p566
sS'high_fuses'
p567
S'0xdd'
p568
sS'low_fuses'
p569
S'0xff'
p570
sS'lock_bits'
p571
S'0x0F'
p572
sS'file'
p573
S'ATmegaBOOT_168.hex'
p574
sS'path'
p575
S'bt'
p576
sS'unlock_bits'
p577
S'0x3F'
p578
ssS'upload'
p579
(dp580
S'protocol'
p581
S'arduino'
p582
sS'maximum_size'
p583
S'14336'
p584
sS'speed'
p585
S'19200'
p586
sS'disable_flushing'
p587
S'true'
p588
ssS'build'
p589
(dp590
S'core'
p591
S'arduino'
p592
sS'mcu'
p593
S'atmega168'
p594
sS'f_cpu'
p595
S'16000000L'
p596
sS'variant'
p597
S'eightanaloginputs'
p598
ssS'name'
p599
S'Arduino BT w/ ATmega168'
p600
saa(lp601
S'lilypad328'
p602
a(dp603
S'bootloader'
p604
(dp605
S'extended_fuses'
p606
S'0x05'
p607
sS'high_fuses'
p608
S'0xDA'
p609
sS'low_fuses'
p610
S'0xFF'
p611
sS'lock_bits'
p612
S'0x0F'
p613
sS'file'
p614
S'ATmegaBOOT_168_atmega328_pro_8MHz.hex'
p615
sS'path'
p616
S'atmega'
p617
sS'unlock_bits'
p618
S'0x3F'
p619
ssS'upload'
p620
(dp621
S'protocol'
p622
S'arduino'
p623
sS'maximum_size'
p624
S'30720'
p625
sS'speed'
p626
S'57600'
p627
ssS'build'
p628
(dp629
S'core'
p630
S'arduino'
p631
sS'mcu'
p632
S'atmega328p'
p633
sS'f_cpu'
p634
S'8000000L'
p635
sS'variant'
p636
S'standard'
p637
ssS'name'
p638
S'LilyPad Arduino w/ ATmega328'
p639
saa(lp640
S'lilypad'
p641
a(dp642
S'bootloader'
p643
(dp644
S'extended_fuses'
p645
S'0x00'
p646
sS'high_fuses'
p647
S'0xdd'
p648
sS'low_fuses'
p649
S'0xe2'
p650
sS'lock_bits'
p651
S'0x0F'
p652
sS'file'
p653
S'LilyPadBOOT_168.hex'
p654
sS'path'
p655
S'lilypad'
p656
sS'unlock_bits'
p657
S'0x3F'
p658
ssS'upload'
p659
(dp660
S'protocol'
p661
S'arduino'
p662
sS'maximum_size'
p663
S'14336'
p664
sS'speed'
p665
S'19200'
p666
ssS'build'
p667
(dp668
S'core'
p669
S'arduino'
p670
sS'mcu'
p671
S'atmega168'
p672
sS'f_cpu'
p673
S'8000000L'
p674
sS'variant'
p675
S'standard'
p676
ssS'name'
p677
S'LilyPad Arduino w/ ATmega168'
p678
saa(lp679
S'pro5v328'
p680
a(dp681
S'bootloader'
p682
(dp683
S'extended_fuses'
p684
S'0x05'
p685
sS'high_fuses'
p686
S'0xDA'
p687
sS'low_fuses'
p688
S'0xFF'
p689
sS'lock_bits'
p690
S'0x0F'
p691
sS'file'
p692
S'ATmegaBOOT_168_atmega328.hex'
p693
sS'path'
p694
S'atmega'
p695
sS'unlock_bits'
p696
S'0x3F'
p697
ssS'upload'
p698
(dp699
S'protocol'
p700
S'arduino'
p701
sS'maximum_size'
p702
S'30720'
p703
sS'speed'
p704
S'57600'
p705
ssS'build'
p706
(dp707
S'core'
p708
S'arduino'
p709
sS'mcu'
p710
S'atmega328p'
p711
sS'f_cpu'
p712
S'16000000L'
p713
sS'variant'
p714
S'standard'
p715
ssS'name'
p716
S'Arduino Pro or Pro Mini (5V, 16 MHz) w/ ATmega328'
p717
saa(lp718
S'pro5v'
p719
a(dp720
S'bootloader'
p721
(dp722
S'extended_fuses'
p723
S'0x00'
p724
sS'high_fuses'
p725
S'0xdd'
p726
sS'low_fuses'
p727
S'0xff'
p728
sS'lock_bits'
p729
S'0x0F'
p730
sS'file'
p731
S'ATmegaBOOT_168_diecimila.hex'
p732
sS'path'
p733
S'atmega'
p734
sS'unlock_bits'
p735
S'0x3F'
p736
ssS'upload'
p737
(dp738
S'protocol'
p739
S'arduino'
p740
sS'maximum_size'
p741
S'14336'
p742
sS'speed'
p743
S'19200'
p744
ssS'build'
p745
(dp746
S'core'
p747
S'arduino'
p748
sS'mcu'
p749
S'atmega168'
p750
sS'f_cpu'
p751
S'16000000L'
p752
sS'variant'
p753
S'standard'
p754
ssS'name'
p755
S'Arduino Pro or Pro Mini (5V, 16 MHz) w/ ATmega168'
p756
saa(lp757
S'pro328'
p758
a(dp759
S'bootloader'
p760
(dp761
S'extended_fuses'
p762
S'0x05'
p763
sS'high_fuses'
p764
S'0xDA'
p765
sS'low_fuses'
p766
S'0xFF'
p767
sS'lock_bits'
p768
S'0x0F'
p769
sS'file'
p770
S'ATmegaBOOT_168_atmega328_pro_8MHz.hex'
p771
sS'path'
p772
S'atmega'
p773
sS'unlock_bits'
p774
S'0x3F'
p775
ssS'upload'
p776
(dp777
S'protocol'
p778
S'arduino'
p779
sS'maximum_size'
p780
S'30720'
p781
sS'speed'
p782
S'57600'
p783
ssS'build'
p784
(dp785
S'core'
p786
S'arduino'
p787
sS'mcu'
p788
S'atmega328p'
p789
sS'f_cpu'
p790
S'8000000L'
p791
sS'variant'
p792
S'standard'
p793
ssS'name'
p794
S'Arduino Pro or Pro Mini (3.3V, 8 MHz) w/ ATmega328'
p795
saa(lp796
S'pro'
p797
a(dp798
S'bootloader'
p799
(dp800
S'extended_fuses'
p801
S'0x00'
p802
sS'high_fuses'
p803
S'0xdd'
p804
sS'low_fuses'
p805
S'0xc6'
p806
sS'lock_bits'
p807
S'0x0F'
p808
sS'file'
p809
S'ATmegaBOOT_168_pro_8MHz.hex'
p810
sS'path'
p811
S'atmega'
p812
sS'unlock_bits'
p813
S'0x3F'
p814
ssS'upload'
p815
(dp816
S'protocol'
p817
S'arduino'
p818
sS'maximum_size'
p819
S'14336'
p820
sS'speed'
p821
S'19200'
p822
ssS'build'
p823
(dp824
S'core'
p825
S'arduino'
p826
sS'mcu'
p827
S'atmega168'
p828
sS'f_cpu'
p829
S'8000000L'
p830
sS'variant'
p831
S'standard'
p832
ssS'name'
p833
S'Arduino Pro or Pro Mini (3.3V, 8 MHz) w/ ATmega168'
p834
saa(lp835
S'atmega168'
p836
a(dp837
S'bootloader'
p838
(dp839
S'extended_fuses'
p840
S'0x00'
p841
sS'high_fuses'
p842
S'0xdd'
p843
sS'low_fuses'
p844
S'0xff'
p845
sS'lock_bits'
p846
S'0x0F'
p847
sS'file'
p848
S'ATmegaBOOT_168_ng.hex'
p849
sS'path'
p850
S'atmega'
p851
sS'unlock_bits'
p852
S'0x3F'
p853
ssS'upload'
p854
(dp855
S'protocol'
p856
S'arduino'
p857
sS'maximum_size'
p858
S'14336'
p859
sS'speed'
p860
S'19200'
p861
ssS'build'
p862
(dp863
S'core'
p864
S'arduino'
p865
sS'mcu'
p866
S'atmega168'
p867
sS'f_cpu'
p868
S'16000000L'
p869
sS'variant'
p870
S'standard'
p871
ssS'name'
p872
S'Arduino NG or older w/ ATmega168'
p873
saa(lp874
S'atmega8'
p875
a(dp876
S'bootloader'
p877
(dp878
S'high_fuses'
p879
S'0xca'
p880
sS'low_fuses'
p881
S'0xdf'
p882
sS'lock_bits'
p883
S'0x0F'
p884
sS'file'
p885
S'ATmegaBOOT.hex'
p886
sS'path'
p887
S'atmega8'
p888
sS'unlock_bits'
p889
S'0x3F'
p890
ssS'upload'
p891
(dp892
S'protocol'
p893
S'arduino'
p894
sS'maximum_size'
p895
S'7168'
p896
sS'speed'
p897
S'19200'
p898
ssS'build'
p899
(dp900
S'core'
p901
S'arduino'
p902
sS'mcu'
p903
S'atmega8'
p904
sS'f_cpu'
p905
S'16000000L'
p906
sS'variant'
p907
S'standard'
p908
ssS'name'
p909
S'Arduino NG or older w/ ATmega8'
p910
saatp911
Rp912
(dp913
S'default'
p914
S'uno'
p915
sbtp916
a(S'cxx'
p917
S'/usr/bin/avr-g++'
p918
tp919
a.